Archive member included because of file (symbol)

C:\u-boot-2009.11-cloud\cpu\mpc85xx\libmpc85xx.a(cpu_init.o)
                              start.o (cpu_init_f)
C:\u-boot-2009.11-cloud\cpu\mpc85xx\libmpc85xx.a(cpu_init_early.o)
                              start.o (cpu_init_early_f)
C:\u-boot-2009.11-cloud\cpu\mpc85xx\libmpc85xx.a(tlb.o)
                              C:\u-boot-2009.11-cloud\cpu\mpc85xx\libmpc85xx.a(cpu_init_early.o) (invalidate_tlb)
C:\u-boot-2009.11-cloud\cpu\mpc85xx\libmpc85xx.a(traps.o)
                              start.o (DebugException)
C:\u-boot-2009.11-cloud\cpu\mpc85xx\libmpc85xx.a(mp.o)
                              C:\u-boot-2009.11-cloud\cpu\mpc85xx\libmpc85xx.a(cpu_init.o) (setup_mp)
C:\u-boot-2009.11-cloud\cpu\mpc85xx\libmpc85xx.a(release.o)
                              C:\u-boot-2009.11-cloud\cpu\mpc85xx\libmpc85xx.a(mp.o) (__secondary_start_page)
C:\u-boot-2009.11-cloud\lib_ppc\libppc.a(ppcstring.o)
                              C:\u-boot-2009.11-cloud\cpu\mpc85xx\libmpc85xx.a(mp.o) (memcpy)
C:\u-boot-2009.11-cloud\lib_ppc\libppc.a(board.o)
                              C:\u-boot-2009.11-cloud\cpu\mpc85xx\libmpc85xx.a(traps.o) (get_effective_memsize)
C:\u-boot-2009.11-cloud\lib_ppc\libppc.a(extable.o)
                              C:\u-boot-2009.11-cloud\cpu\mpc85xx\libmpc85xx.a(traps.o) (search_exception_table)
C:\u-boot-2009.11-cloud\lib_ppc\libppc.a(interrupts.o)
                              C:\u-boot-2009.11-cloud\lib_ppc\libppc.a(board.o) (set_timer)
C:\u-boot-2009.11-cloud\lib_ppc\libppc.a(time.o)
                              C:\u-boot-2009.11-cloud\lib_ppc\libppc.a(board.o) (init_timebase)
C:\u-boot-2009.11-cloud\lib_ppc\libppc.a(ticks.o)
                              C:\u-boot-2009.11-cloud\lib_ppc\libppc.a(time.o) (wait_ticks)
C:\u-boot-2009.11-cloud\net\libnet.a(eth.o)
                              C:\u-boot-2009.11-cloud\lib_ppc\libppc.a(board.o) (eth_getenv_enetaddr)
C:\u-boot-2009.11-cloud\net\libnet.a(net.o)
                              C:\u-boot-2009.11-cloud\lib_ppc\libppc.a(board.o) (copy_filename)
C:\u-boot-2009.11-cloud\net\libnet.a(nfs.o)
                              C:\u-boot-2009.11-cloud\net\libnet.a(net.o) (NfsStart)
C:\u-boot-2009.11-cloud\net\libnet.a(rarp.o)
                              C:\u-boot-2009.11-cloud\net\libnet.a(net.o) (RarpTry)
C:\u-boot-2009.11-cloud\net\libnet.a(tftp.o)
                              C:\u-boot-2009.11-cloud\net\libnet.a(net.o) (TftpStart)
C:\u-boot-2009.11-cloud\net\libnet.a(bootp.o)
                              C:\u-boot-2009.11-cloud\net\libnet.a(net.o) (BootpTry)
C:\u-boot-2009.11-cloud\drivers\i2c\libi2c.a(fsl_i2c.o)
                              C:\u-boot-2009.11-cloud\lib_ppc\libppc.a(board.o) (i2c_init)
C:\u-boot-2009.11-cloud\drivers\misc\libmisc.a(fsl_law.o)
                              C:\u-boot-2009.11-cloud\cpu\mpc85xx\libmpc85xx.a(cpu_init_early.o) (init_laws)
C:\u-boot-2009.11-cloud\drivers\mtd\libmtd.a(cfi_flash.o)
                              C:\u-boot-2009.11-cloud\lib_ppc\libppc.a(board.o) (flash_init)
C:\u-boot-2009.11-cloud\drivers\mtd\nand\libnand.a(nand.o)
                              C:\u-boot-2009.11-cloud\lib_ppc\libppc.a(board.o) (nand_init)
C:\u-boot-2009.11-cloud\drivers\mtd\nand\libnand.a(nand_base.o)
                              C:\u-boot-2009.11-cloud\drivers\mtd\nand\libnand.a(nand.o) (nand_scan)
C:\u-boot-2009.11-cloud\drivers\mtd\nand\libnand.a(nand_bbt.o)
                              C:\u-boot-2009.11-cloud\drivers\mtd\nand\libnand.a(nand_base.o) (nand_isbad_bbt)
C:\u-boot-2009.11-cloud\drivers\mtd\nand\libnand.a(nand_ecc.o)
                              C:\u-boot-2009.11-cloud\drivers\mtd\nand\libnand.a(nand_base.o) (nand_calculate_ecc)
C:\u-boot-2009.11-cloud\drivers\mtd\nand\libnand.a(nand_ids.o)
                              C:\u-boot-2009.11-cloud\drivers\mtd\nand\libnand.a(nand_base.o) (nand_flash_ids)
C:\u-boot-2009.11-cloud\drivers\mtd\nand\libnand.a(fsl_elbc_nand.o)
                              C:\u-boot-2009.11-cloud\drivers\mtd\nand\libnand.a(nand.o) (board_nand_init)
C:\u-boot-2009.11-cloud\drivers\spi\libspi.a(fsl_espi.o)
                              C:\u-boot-2009.11-cloud\lib_ppc\libppc.a(board.o) (spi_init)
C:\u-boot-2009.11-cloud\cpu\mpc8xxx\lib8xxx.a(cpu.o)
                              C:\u-boot-2009.11-cloud\cpu\mpc85xx\libmpc85xx.a(mp.o) (cpu_numcores)
C:\u-boot-2009.11-cloud\common\libcommon.a(cmd_bdinfo.o)
                              (__u_boot_cmd_bdinfo)
C:\u-boot-2009.11-cloud\common\libcommon.a(cmd_boot.o)
                              (__u_boot_cmd_go)
C:\u-boot-2009.11-cloud\common\libcommon.a(cmd_bootm.o)
                              C:\u-boot-2009.11-cloud\lib_ppc\libppc.a(board.o) (load_addr)
C:\u-boot-2009.11-cloud\common\libcommon.a(cmd_elf.o)
                              C:\u-boot-2009.11-cloud\common\libcommon.a(cmd_bootm.o) (do_bootvx)
C:\u-boot-2009.11-cloud\common\libcommon.a(cmd_fdt.o)
                              C:\u-boot-2009.11-cloud\common\libcommon.a(cmd_bootm.o) (set_working_fdt_addr)
C:\u-boot-2009.11-cloud\common\libcommon.a(cmd_flash.o)
                              (__u_boot_cmd_flinfo)
C:\u-boot-2009.11-cloud\common\libcommon.a(cmd_itest.o)
                              (__u_boot_cmd_itest)
C:\u-boot-2009.11-cloud\common\libcommon.a(cmd_load.o)
                              (__u_boot_cmd_loads)
C:\u-boot-2009.11-cloud\common\libcommon.a(cmd_mac.o)
                              (__u_boot_cmd_mac)
C:\u-boot-2009.11-cloud\common\libcommon.a(cmd_mem.o)
                              (__u_boot_cmd_md)
C:\u-boot-2009.11-cloud\common\libcommon.a(cmd_mii.o)
                              (__u_boot_cmd_mii)
C:\u-boot-2009.11-cloud\common\libcommon.a(cmd_misc.o)
                              (__u_boot_cmd_sleep)
C:\u-boot-2009.11-cloud\common\libcommon.a(cmd_mp.o)
                              (__u_boot_cmd_cpu)
C:\u-boot-2009.11-cloud\common\libcommon.a(cmd_nand.o)
                              (__u_boot_cmd_nand)
C:\u-boot-2009.11-cloud\common\libcommon.a(cmd_net.o)
                              (__u_boot_cmd_tftpboot)
C:\u-boot-2009.11-cloud\common\libcommon.a(cmd_nvedit.o)
                              C:\u-boot-2009.11-cloud\net\libnet.a(eth.o) (get_env_id)
C:\u-boot-2009.11-cloud\common\libcommon.a(cmd_setexpr.o)
                              (__u_boot_cmd_setexpr)
C:\u-boot-2009.11-cloud\common\libcommon.a(cmd_sf.o)
                              (__u_boot_cmd_sf)
C:\u-boot-2009.11-cloud\common\libcommon.a(cmd_source.o)
                              (__u_boot_cmd_source)
C:\u-boot-2009.11-cloud\common\libcommon.a(command.o)
                              C:\u-boot-2009.11-cloud\common\libcommon.a(cmd_itest.o) (cmd_get_data_size)
C:\u-boot-2009.11-cloud\common\libcommon.a(console.o)
                              C:\u-boot-2009.11-cloud\cpu\mpc85xx\libmpc85xx.a(cpu_init.o) (printf)
C:\u-boot-2009.11-cloud\common\libcommon.a(dlmalloc.o)
                              C:\u-boot-2009.11-cloud\drivers\mtd\nand\libnand.a(nand_base.o) (free)
C:\u-boot-2009.11-cloud\common\libcommon.a(env_common.o)
                              C:\u-boot-2009.11-cloud\common\libcommon.a(cmd_nvedit.o) (env_get_addr)
C:\u-boot-2009.11-cloud\common\libcommon.a(env_sf.o)
                              C:\u-boot-2009.11-cloud\common\libcommon.a(env_common.o) (env_get_char_spec)
C:\u-boot-2009.11-cloud\common\libcommon.a(exports.o)
                              C:\u-boot-2009.11-cloud\lib_ppc\libppc.a(board.o) (jumptable_init)
C:\u-boot-2009.11-cloud\common\libcommon.a(fdt_support.o)
                              C:\u-boot-2009.11-cloud\common\libcommon.a(cmd_fdt.o) (fdt_resize)
C:\u-boot-2009.11-cloud\common\libcommon.a(flash.o)
                              C:\u-boot-2009.11-cloud\common\libcommon.a(cmd_load.o) (addr2info)
C:\u-boot-2009.11-cloud\common\libcommon.a(hush.o)
                              C:\u-boot-2009.11-cloud\common\libcommon.a(cmd_bootm.o) (parse_string_outer)
C:\u-boot-2009.11-cloud\common\libcommon.a(image.o)
                              C:\u-boot-2009.11-cloud\common\libcommon.a(cmd_bootm.o) (image_multi_getimg)
C:\u-boot-2009.11-cloud\common\libcommon.a(main.o)
                              C:\u-boot-2009.11-cloud\common\libcommon.a(cmd_nvedit.o) (do_run)
C:\u-boot-2009.11-cloud\common\libcommon.a(miiphyutil.o)
                              C:\u-boot-2009.11-cloud\net\libnet.a(eth.o) (miiphy_init)
C:\u-boot-2009.11-cloud\common\libcommon.a(s_record.o)
                              C:\u-boot-2009.11-cloud\common\libcommon.a(cmd_load.o) (srec_decode)
C:\u-boot-2009.11-cloud\common\libcommon.a(serial.o)
                              C:\u-boot-2009.11-cloud\lib_ppc\libppc.a(board.o) (serial_init)
C:\u-boot-2009.11-cloud\common\libcommon.a(stdio.o)
                              C:\u-boot-2009.11-cloud\common\libcommon.a(serial.o) (stdio_register)
C:\u-boot-2009.11-cloud\libfdt\libfdt.a(fdt.o)
                              C:\u-boot-2009.11-cloud\common\libcommon.a(cmd_fdt.o) (fdt_check_header)
C:\u-boot-2009.11-cloud\libfdt\libfdt.a(fdt_ro.o)
                              C:\u-boot-2009.11-cloud\common\libcommon.a(cmd_fdt.o) (fdt_string)
C:\u-boot-2009.11-cloud\libfdt\libfdt.a(fdt_rw.o)
                              C:\u-boot-2009.11-cloud\common\libcommon.a(cmd_fdt.o) (fdt_del_mem_rsv)
C:\u-boot-2009.11-cloud\libfdt\libfdt.a(fdt_strerror.o)
                              C:\u-boot-2009.11-cloud\common\libcommon.a(cmd_fdt.o) (fdt_strerror)
C:\u-boot-2009.11-cloud\libfdt\libfdt.a(fdt_wip.o)
                              C:\u-boot-2009.11-cloud\libfdt\libfdt.a(fdt_rw.o) (_fdt_node_end_offset)
C:\u-boot-2009.11-cloud\board\freescale\p1_p2_rdb\libp1_p2_rdb.a(p1_p2_rdb.o)
                              C:\u-boot-2009.11-cloud\common\libcommon.a(cmd_fdt.o) (ft_board_setup)
C:\u-boot-2009.11-cloud\board\freescale\p1_p2_rdb\libp1_p2_rdb.a(ddr.o)
                              C:\u-boot-2009.11-cloud\lib_ppc\libppc.a(board.o) (initdram)
C:\u-boot-2009.11-cloud\board\freescale\p1_p2_rdb\libp1_p2_rdb.a(law.o)
                              C:\u-boot-2009.11-cloud\drivers\misc\libmisc.a(fsl_law.o) (law_table)
C:\u-boot-2009.11-cloud\board\freescale\p1_p2_rdb\libp1_p2_rdb.a(tlb.o)
                              C:\u-boot-2009.11-cloud\cpu\mpc85xx\libmpc85xx.a(tlb.o) (tlb_table)
C:\u-boot-2009.11-cloud\lib_generic\libgeneric.a(crc32.o)
                              C:\u-boot-2009.11-cloud\common\libcommon.a(cmd_mem.o) (crc32)
C:\u-boot-2009.11-cloud\lib_generic\libgeneric.a(ctype.o)
                              C:\u-boot-2009.11-cloud\common\libcommon.a(cmd_fdt.o) (_ctype)
C:\u-boot-2009.11-cloud\lib_generic\libgeneric.a(display_options.o)
                              C:\u-boot-2009.11-cloud\cpu\mpc85xx\libmpc85xx.a(tlb.o) (print_size)
C:\u-boot-2009.11-cloud\lib_generic\libgeneric.a(gunzip.o)
                              C:\u-boot-2009.11-cloud\common\libcommon.a(cmd_bootm.o) (gunzip)
C:\u-boot-2009.11-cloud\lib_generic\libgeneric.a(lmb.o)
                              C:\u-boot-2009.11-cloud\common\libcommon.a(cmd_bootm.o) (lmb_init)
C:\u-boot-2009.11-cloud\lib_generic\libgeneric.a(md5.o)
                              C:\u-boot-2009.11-cloud\common\libcommon.a(image.o) (md5_wd)
C:\u-boot-2009.11-cloud\lib_generic\libgeneric.a(sha1.o)
                              C:\u-boot-2009.11-cloud\common\libcommon.a(image.o) (sha1_csum_wd)
C:\u-boot-2009.11-cloud\lib_generic\libgeneric.a(string.o)
                              C:\u-boot-2009.11-cloud\common\libcommon.a(hush.o) (strncat)
C:\u-boot-2009.11-cloud\lib_generic\libgeneric.a(strmhz.o)
                              C:\u-boot-2009.11-cloud\common\libcommon.a(cmd_bdinfo.o) (strmhz)
C:\u-boot-2009.11-cloud\lib_generic\libgeneric.a(vsprintf.o)
                              C:\u-boot-2009.11-cloud\cpu\mpc85xx\libmpc85xx.a(mp.o) (simple_strtoul)
C:\u-boot-2009.11-cloud\lib_generic\libgeneric.a(zlib.o)
                              C:\u-boot-2009.11-cloud\lib_generic\libgeneric.a(gunzip.o) (inflateInit2_)
C:\u-boot-2009.11-cloud\board\freescale\common\libfreescale.a(sys_eeprom.o)
                              C:\u-boot-2009.11-cloud\lib_ppc\libppc.a(board.o) (mac_read_from_eeprom)
C:\u-boot-2009.11-cloud\cpu\mpc85xx\libmpc85xx.a(ddr-gen3.o)
                              C:\u-boot-2009.11-cloud\board\freescale\p1_p2_rdb\libp1_p2_rdb.a(ddr.o) (fsl_ddr_set_memctl_regs)
C:\u-boot-2009.11-cloud\cpu\mpc85xx\libmpc85xx.a(fdt.o)
                              C:\u-boot-2009.11-cloud\board\freescale\p1_p2_rdb\libp1_p2_rdb.a(p1_p2_rdb.o) (ft_cpu_setup)
C:\u-boot-2009.11-cloud\cpu\mpc85xx\libmpc85xx.a(cpu.o)
                              C:\u-boot-2009.11-cloud\lib_ppc\libppc.a(time.o) (get_tbclk)
C:\u-boot-2009.11-cloud\cpu\mpc85xx\libmpc85xx.a(interrupts.o)
                              C:\u-boot-2009.11-cloud\common\libcommon.a(exports.o) (irq_install_handler)
C:\u-boot-2009.11-cloud\cpu\mpc85xx\libmpc85xx.a(speed.o)
                              C:\u-boot-2009.11-cloud\cpu\mpc85xx\libmpc85xx.a(fdt.o) (get_bus_freq)
C:\u-boot-2009.11-cloud\lib_ppc\libppc.a(bootm.o)
                              C:\u-boot-2009.11-cloud\common\libcommon.a(cmd_bootm.o) (do_bootm_linux)
C:\u-boot-2009.11-cloud\lib_ppc\libppc.a(cache.o)
                              C:\u-boot-2009.11-cloud\common\libcommon.a(cmd_elf.o) (flush_cache)
C:\u-boot-2009.11-cloud\drivers\mtd\nand\libnand.a(nand_util.o)
                              C:\u-boot-2009.11-cloud\common\libcommon.a(cmd_nand.o) (nand_read_skip_bad)
C:\u-boot-2009.11-cloud\drivers\mtd\spi\libspi_flash.a(spi_flash.o)
                              C:\u-boot-2009.11-cloud\common\libcommon.a(cmd_sf.o) (spi_flash_free)
C:\u-boot-2009.11-cloud\drivers\mtd\spi\libspi_flash.a(spansion.o)
                              C:\u-boot-2009.11-cloud\drivers\mtd\spi\libspi_flash.a(spi_flash.o) (spi_flash_probe_spansion)
C:\u-boot-2009.11-cloud\drivers\net\libnet.a(tsec.o)
                              C:\u-boot-2009.11-cloud\board\freescale\p1_p2_rdb\libp1_p2_rdb.a(p1_p2_rdb.o) (tsec_eth_init)
C:\u-boot-2009.11-cloud\drivers\net\libnet.a(vsc7385.o)
                              C:\u-boot-2009.11-cloud\board\freescale\p1_p2_rdb\libp1_p2_rdb.a(p1_p2_rdb.o) (vsc7385_upload_firmware)
C:\u-boot-2009.11-cloud\cpu\mpc8xxx\lib8xxx.a(fdt.o)
                              C:\u-boot-2009.11-cloud\cpu\mpc85xx\libmpc85xx.a(fdt.o) (ft_fixup_num_cores)
C:\u-boot-2009.11-cloud\drivers\rtc\librtc.a(date.o)
                              C:\u-boot-2009.11-cloud\common\libcommon.a(image.o) (to_tm)
C:\u-boot-2009.11-cloud\drivers\rtc\librtc.a(ds1337.o)
                              C:\u-boot-2009.11-cloud\board\freescale\p1_p2_rdb\libp1_p2_rdb.a(p1_p2_rdb.o) (rtc_reset)
C:\u-boot-2009.11-cloud\drivers\serial\libserial.a(serial.o)
                              C:\u-boot-2009.11-cloud\common\libcommon.a(serial.o) (eserial1_device)
C:\u-boot-2009.11-cloud\drivers\serial\libserial.a(ns16550.o)
                              C:\u-boot-2009.11-cloud\drivers\serial\libserial.a(serial.o) (NS16550_init)
C:\u-boot-2009.11-cloud\lib_generic\libgeneric.a(div64.o)
                              C:\u-boot-2009.11-cloud\drivers\mtd\nand\libnand.a(nand_util.o) (__div64_32)
C:\Cross_Tools\4.3.2\libgcc.a(_lshrdi3.o)
                              C:\u-boot-2009.11-cloud\drivers\mtd\nand\libnand.a(nand_base.o) (__lshrdi3)
C:\Cross_Tools\4.3.2\libgcc.a(_ashldi3.o)
                              C:\u-boot-2009.11-cloud\cpu\mpc85xx\libmpc85xx.a(tlb.o) (__ashldi3)
C:\Cross_Tools\4.3.2\libgcc.a(_ashrdi3.o)
                              C:\u-boot-2009.11-cloud\drivers\mtd\nand\libnand.a(nand_base.o) (__ashrdi3)

Allocating common symbols
Common symbol       size              file

dp_last_size        0x4               C:\u-boot-2009.11-cloud\common\libcommon.a(cmd_mem.o)
console_buffer      0x100             C:\u-boot-2009.11-cloud\common\libcommon.a(main.o)
NetArpWaitTry       0x4               C:\u-boot-2009.11-cloud\net\libnet.a(net.o)
NetArpWaitPacketMAC
                    0x4               C:\u-boot-2009.11-cloud\net\libnet.a(net.o)
hist_list           0x50              C:\u-boot-2009.11-cloud\common\libcommon.a(main.o)
last_reg_hi         0x4               C:\u-boot-2009.11-cloud\common\libcommon.a(cmd_mii.o)
flash_info          0x2bc             C:\u-boot-2009.11-cloud\drivers\mtd\libmtd.a(cfi_flash.o)
hist_lines          0x1400            C:\u-boot-2009.11-cloud\common\libcommon.a(main.o)
NetOurEther         0x6               C:\u-boot-2009.11-cloud\net\libnet.a(net.o)
NetOurIP            0x4               C:\u-boot-2009.11-cloud\net\libnet.a(net.o)
NetPingIP           0x4               C:\u-boot-2009.11-cloud\net\libnet.a(net.o)
NetServerIP         0x4               C:\u-boot-2009.11-cloud\net\libnet.a(net.o)
monitor_flash_len   0x4               C:\u-boot-2009.11-cloud\lib_ppc\libppc.a(board.o)
___strtok           0x4               C:\u-boot-2009.11-cloud\lib_generic\libgeneric.a(string.o)
NetArpWaitTxPacketSize
                    0x4               C:\u-boot-2009.11-cloud\net\libnet.a(net.o)
NetArpWaitReplyIP   0x4               C:\u-boot-2009.11-cloud\net\libnet.a(net.o)
NetRxPackets        0x10              C:\u-boot-2009.11-cloud\net\libnet.a(net.o)
NetArpWaitTxPacket  0x4               C:\u-boot-2009.11-cloud\net\libnet.a(net.o)
NetArpWaitPacketIP  0x4               C:\u-boot-2009.11-cloud\net\libnet.a(net.o)
NetState            0x4               C:\u-boot-2009.11-cloud\net\libnet.a(net.o)
BootpTry            0x4               C:\u-boot-2009.11-cloud\net\libnet.a(bootp.o)
nand_info           0xb0              C:\u-boot-2009.11-cloud\drivers\mtd\nand\libnand.a(nand.o)
BootFile            0x80              C:\u-boot-2009.11-cloud\net\libnet.a(net.o)
dp_last_addr        0x4               C:\u-boot-2009.11-cloud\common\libcommon.a(cmd_mem.o)
his_pad_char        0x1               C:\u-boot-2009.11-cloud\common\libcommon.a(cmd_load.o)
env_ptr             0x4               C:\u-boot-2009.11-cloud\common\libcommon.a(env_sf.o)
last_data           0x4               C:\u-boot-2009.11-cloud\common\libcommon.a(cmd_mii.o)
RarpTry             0x4               C:\u-boot-2009.11-cloud\net\libnet.a(rarp.o)
last_addr_hi        0x4               C:\u-boot-2009.11-cloud\common\libcommon.a(cmd_mii.o)
mm_last_size        0x4               C:\u-boot-2009.11-cloud\common\libcommon.a(cmd_mem.o)
os_data_init        0x4               C:\u-boot-2009.11-cloud\common\libcommon.a(cmd_load.o)
mm_last_addr        0x4               C:\u-boot-2009.11-cloud\common\libcommon.a(cmd_mem.o)
NetIPID             0x4               C:\u-boot-2009.11-cloud\net\libnet.a(net.o)
NetRxPacket         0x4               C:\u-boot-2009.11-cloud\net\libnet.a(net.o)
last_reg_lo         0x4               C:\u-boot-2009.11-cloud\common\libcommon.a(cmd_mii.o)
nesting_level       0x4               C:\u-boot-2009.11-cloud\common\libcommon.a(hush.o)
send_ptr            0x4               C:\u-boot-2009.11-cloud\common\libcommon.a(cmd_load.o)
BootpID             0x4               C:\u-boot-2009.11-cloud\net\libnet.a(bootp.o)
last_return_code    0x4               C:\u-boot-2009.11-cloud\common\libcommon.a(hush.o)
working_fdt         0x4               C:\u-boot-2009.11-cloud\common\libcommon.a(cmd_fdt.o)
os_data_char        0x4               C:\u-boot-2009.11-cloud\common\libcommon.a(cmd_load.o)
last_op             0x2               C:\u-boot-2009.11-cloud\common\libcommon.a(cmd_mii.o)
NetArpWaitPacketBuf
                    0x620             C:\u-boot-2009.11-cloud\net\libnet.a(net.o)
his_eol             0x1               C:\u-boot-2009.11-cloud\common\libcommon.a(cmd_load.o)
his_quote           0x1               C:\u-boot-2009.11-cloud\common\libcommon.a(cmd_load.o)
NetBootFileXferSize
                    0x4               C:\u-boot-2009.11-cloud\net\libnet.a(net.o)
NetRxPacketLen      0x4               C:\u-boot-2009.11-cloud\net\libnet.a(net.o)
last_addr_lo        0x4               C:\u-boot-2009.11-cloud\common\libcommon.a(cmd_mii.o)
PktBuf              0x1e20            C:\u-boot-2009.11-cloud\net\libnet.a(net.o)
send_parms          0x14              C:\u-boot-2009.11-cloud\common\libcommon.a(cmd_load.o)
his_pad_count       0x4               C:\u-boot-2009.11-cloud\common\libcommon.a(cmd_load.o)
NetArpWaitTimerStart
                    0x4               C:\u-boot-2009.11-cloud\net\libnet.a(net.o)

Memory Configuration

Name             Origin             Length             Attributes
*default*        0x0000000000000000 0xffffffffffffffff

Linker script and memory map

                0x0000000000000074                . = SIZEOF_HEADERS

.interp
 *(.interp)

.hash
 *(.hash)

.dynsym
 *(.dynsym)

.dynstr
 *(.dynstr)

.rela.dyn       0x0000000000000074        0x0
 .rela.got2     0x0000000000000000        0x0 start.o
 .rela.data.rel
                0x0000000000000000        0x0 start.o
 .rela.u_boot_cmd
                0x0000000000000000        0x0 start.o
 .rela.data.rel.ro
                0x0000000000000000        0x0 start.o

.rel.text
 *(.rel.text)

.rela.text      0x0000000000000074        0x0
 *(.rela.text)
 .rela.text     0x0000000000000000        0x0 start.o

.rel.data
 *(.rel.data)

.rela.data
 *(.rela.data)

.rel.rodata
 *(.rel.rodata)

.rela.rodata
 *(.rela.rodata)

.rel.got
 *(.rel.got)

.rela.got
 *(.rela.got)

.rel.ctors
 *(.rel.ctors)

.rela.ctors
 *(.rela.ctors)

.rel.dtors
 *(.rel.dtors)

.rela.dtors
 *(.rela.dtors)

.rel.bss
 *(.rel.bss)

.rela.bss
 *(.rela.bss)

.rel.plt
 *(.rel.plt)

.rela.plt
 *(.rela.plt)

.init
 *(.init)

.plt
 *(.plt)

.text           0x0000000011000000    0x34810
 *(.text)
 .text          0x0000000011000000     0x1850 start.o
                0x0000000011000000                _start
                0x0000000011000004                version_string
                0x0000000011000030                _start_cont
                0x0000000011000100                _start_of_vectors
                0x0000000011000f98                _end_of_vectors
                0x0000000011001000                transfer_to_handler
                0x000000001100133c                invalidate_icache
                0x0000000011001358                invalidate_dcache
                0x0000000011001374                icache_enable
                0x000000001100139c                icache_disable
                0x00000000110013b8                icache_status
                0x00000000110013c4                dcache_enable
                0x00000000110013f4                dcache_disable
                0x0000000011001410                dcache_status
                0x000000001100141c                get_pir
                0x0000000011001424                get_pvr
                0x000000001100142c                get_svr
                0x0000000011001434                wr_tcr
                0x000000001100143c                in8
                0x0000000011001444                out8
                0x0000000011001450                out16
                0x000000001100145c                out16r
                0x0000000011001468                out32
                0x0000000011001474                out32r
                0x0000000011001480                in16
                0x0000000011001488                in16r
                0x0000000011001490                in32
                0x0000000011001498                in32r
                0x00000000110014a0                write_tlb
                0x00000000110014c8                relocate_code
                0x000000001100159c                in_ram
                0x000000001100162c                trap_init
                0x00000000110016e8                unlock_ram_in_cache
                0x000000001100173c                flush_dcache
                0x00000000110017a8                setup_ivors
 .text          0x0000000011001850        0x0 C:\u-boot-2009.11-cloud\cpu\mpc85xx\start.o
 .text          0x0000000011001850        0x0 C:\u-boot-2009.11-cloud\cpu\mpc85xx\resetvec.o
 .text          0x0000000011001850      0x29c C:\u-boot-2009.11-cloud\cpu\mpc85xx\libmpc85xx.a(cpu_init.o)
                0x0000000011001850                arch_preboot_os
                0x000000001100189c                cpu_init_r
                0x0000000011001a44                cpu_init_f
 .text          0x0000000011001aec       0xf0 C:\u-boot-2009.11-cloud\cpu\mpc85xx\libmpc85xx.a(cpu_init_early.o)
                0x0000000011001aec                cpu_init_early_f
 .text          0x0000000011001bdc      0x2dc C:\u-boot-2009.11-cloud\cpu\mpc85xx\libmpc85xx.a(tlb.o)
                0x0000000011001bdc                invalidate_tlb
                0x0000000011001c04                disable_tlb
                0x0000000011001c34                find_tlb_idx
                0x0000000011001c6c                set_tlb
                0x0000000011001ce4                setup_ddr_tlbs
                0x0000000011001e48                init_tlbs
 .text          0x0000000011001eb8      0x620 C:\u-boot-2009.11-cloud\cpu\mpc85xx\libmpc85xx.a(traps.o)
                0x0000000011001eb8                addr_probe
                0x0000000011001ec0                show_regs
                0x0000000011001f98                DebugException
                0x0000000011001fe4                PITException
                0x0000000011002028                CritcalInputException
                0x0000000011002064                print_backtrace
                0x000000001100211c                ExtIntException
                0x0000000011002190                ProgramCheckException
                0x0000000011002210                AlignmentException
                0x000000001100225c                MachineCheckException
                0x0000000011002424                _exception
                0x0000000011002480                UnknownException
 .text          0x00000000110024d8      0x504 C:\u-boot-2009.11-cloud\cpu\mpc85xx\libmpc85xx.a(mp.o)
                0x00000000110024d8                get_my_id
                0x00000000110024e0                cpu_reset
                0x000000001100251c                determine_mp_bootpg
                0x000000001100253c                get_spin_phys_addr
                0x0000000011002584                get_spin_virt_addr
                0x00000000110025c4                setup_mp
                0x00000000110027f4                cpu_status
                0x00000000110028ac                cpu_mp_lmb_reserve
                0x00000000110028f8                cpu_release
 *fill*         0x00000000110029dc      0x624 00
 .text          0x0000000011003000     0x1000 C:\u-boot-2009.11-cloud\cpu\mpc85xx\libmpc85xx.a(release.o)
                0x0000000011003000                __secondary_start_page
                0x0000000011003268                __bootpg_addr
                0x0000000011003280                __spin_table
 .text          0x0000000011004000      0x29c C:\u-boot-2009.11-cloud\lib_ppc\libppc.a(ppcstring.o)
                0x0000000011004000                strcpy
                0x000000001100401c                strncpy
                0x0000000011004044                strcat
                0x0000000011004070                strcmp
                0x0000000011004094                strlen
                0x00000000110040ac                memset
                0x0000000011004108                bcopy
                0x0000000011004118                memmove
                0x0000000011004120                memcpy
                0x00000000110041bc                backwards_memcpy
                0x0000000011004244                memcmp
                0x0000000011004274                memchr
 .text          0x000000001100429c      0x4ec C:\u-boot-2009.11-cloud\lib_ppc\libppc.a(board.o)
                0x000000001100429c                board_add_ram_info
                0x000000001100429c                __board_add_ram_info
                0x00000000110042a0                get_effective_memsize
                0x0000000011004450                hang
                0x0000000011004484                board_init_r
                0x000000001100461c                board_init_f
 .text          0x0000000011004788       0x64 C:\u-boot-2009.11-cloud\lib_ppc\libppc.a(extable.o)
                0x0000000011004788                search_exception_table
 .text          0x00000000110047ec      0x1a0 C:\u-boot-2009.11-cloud\lib_ppc\libppc.a(interrupts.o)
                0x00000000110047ec                enable_interrupts
                0x00000000110047fc                disable_interrupts
                0x0000000011004810                reset_timer
                0x0000000011004850                get_timer
                0x0000000011004890                set_timer
                0x00000000110048cc                timer_interrupt
                0x0000000011004928                interrupt_init
 .text          0x000000001100498c      0x13c C:\u-boot-2009.11-cloud\lib_ppc\libppc.a(time.o)
                0x000000001100498c                init_timebase
                0x00000000110049a0                ticks2usec
                0x00000000110049e8                usec2ticks
                0x0000000011004a60                udelay
 .text          0x0000000011004ac8       0x44 C:\u-boot-2009.11-cloud\lib_ppc\libppc.a(ticks.o)
                0x0000000011004ac8                get_ticks
                0x0000000011004ae0                wait_ticks
 .text          0x0000000011004b0c      0xa24 C:\u-boot-2009.11-cloud\net\libnet.a(eth.o)
                0x0000000011004b14                eth_get_dev
                0x0000000011004b50                eth_get_dev_by_index
                0x0000000011004bbc                eth_get_dev_index
                0x0000000011004c34                eth_halt
                0x0000000011004c90                eth_send
                0x0000000011004cf4                eth_rx
                0x0000000011004d4c                eth_get_name
                0x0000000011004d94                eth_get_dev_by_name
                0x0000000011004e0c                eth_set_current
                0x0000000011004ed0                eth_try_another
                0x0000000011004fa0                eth_register
                0x0000000011005060                eth_setenv_enetaddr
                0x00000000110050b8                eth_parse_enetaddr
                0x0000000011005148                eth_getenv_enetaddr
                0x00000000110051d0                eth_getenv_enetaddr_by_index
                0x0000000011005234                eth_init
                0x000000001100531c                eth_initialize
 .text          0x0000000011005530     0x1670 C:\u-boot-2009.11-cloud\net\libnet.a(net.o)
                0x0000000011005574                NetSetHandler
                0x00000000110055b0                NetCksum
                0x0000000011005618                NetCksumOk
                0x0000000011005660                NetEthHdrSize
                0x00000000110056c4                copy_filename
                0x0000000011005740                string_to_VLAN
                0x00000000110057a8                getenv_VLAN
                0x00000000110057e4                string_to_ip
                0x0000000011005880                getenv_IPaddr
                0x00000000110058bc                VLAN_to_string
                0x0000000011005924                ip_to_string
                0x0000000011005978                random_port
                0x00000000110059bc                NetSetTimeout
                0x0000000011005a54                NetSetIP
                0x0000000011005b3c                NetSetEther
                0x0000000011005c78                NetSendPacket
                0x0000000011005cb0                NetReceive
                0x0000000011006184                ArpRequest
                0x00000000110062c4                PingSend
                0x0000000011006434                NetSendUDPPacket
                0x00000000110065dc                NetStartAgain
                0x0000000011006714                ArpTimeoutCheck
                0x00000000110067ac                NetLoop
 .text          0x0000000011006ba0      0xfb4 C:\u-boot-2009.11-cloud\net\libnet.a(nfs.o)
                0x0000000011007490                NfsStart
 .text          0x0000000011007b54      0x1dc C:\u-boot-2009.11-cloud\net\libnet.a(rarp.o)
                0x0000000011007b54                RarpRequest
 .text          0x0000000011007d30      0x71c C:\u-boot-2009.11-cloud\net\libnet.a(tftp.o)
                0x0000000011007eac                TftpStart
 .text          0x000000001100844c      0x690 C:\u-boot-2009.11-cloud\net\libnet.a(bootp.o)
                0x00000000110088d0                BootpRequest
 .text          0x0000000011008adc      0xa00 C:\u-boot-2009.11-cloud\drivers\i2c\libi2c.a(fsl_i2c.o)
                0x0000000011008adc                i2c_set_bus_num
                0x0000000011008b2c                i2c_get_bus_num
                0x0000000011008b68                i2c_get_bus_speed
                0x0000000011008d04                i2c_set_bus_speed
                0x0000000011008f58                i2c_write
                0x00000000110090cc                i2c_read
                0x0000000011009324                i2c_probe
                0x00000000110093a8                i2c_init
 .text          0x00000000110094dc      0x5c8 C:\u-boot-2009.11-cloud\drivers\misc\libmisc.a(fsl_law.o)
                0x00000000110094dc                set_law
                0x0000000011009544                disable_law
                0x0000000011009594                set_next_law
                0x0000000011009614                set_last_law
                0x0000000011009694                find_law
                0x0000000011009784                set_ddr_laws
                0x000000001100997c                init_laws
                0x0000000011009a10                print_laws
 .text          0x0000000011009aa4     0x1b1c C:\u-boot-2009.11-cloud\drivers\mtd\libmtd.a(cfi_flash.o)
                0x0000000011009aa4                flash_sector_size
                0x0000000011009b74                flash_write_cmd
                0x0000000011009ef4                __flash_cmd_reset
                0x0000000011009ef4                flash_cmd_reset
                0x0000000011009f50                flash_set_verbose
                0x0000000011009f8c                flash_get_size
                0x000000001100a7d4                flash_init
                0x000000001100a828                flash_print_info
                0x000000001100b0a8                write_buff
                0x000000001100b3b0                flash_erase
 .text          0x000000001100b5c0       0xe0 C:\u-boot-2009.11-cloud\drivers\mtd\nand\libnand.a(nand.o)
                0x000000001100b5c0                nand_init
 .text          0x000000001100b6a0     0x3f10 C:\u-boot-2009.11-cloud\drivers\mtd\nand\libnand.a(nand_base.o)
                0x000000001100cba4                nand_release
                0x000000001100cc58                nand_scan_tail
                0x000000001100d44c                nand_scan_ident
                0x000000001100da04                nand_scan
                0x000000001100e428                nand_erase_nand
                0x000000001100e90c                nand_wait_ready
 .text          0x000000001100f5b0     0x1964 C:\u-boot-2009.11-cloud\drivers\mtd\nand\libnand.a(nand_bbt.o)
                0x000000001100f600                nand_isbad_bbt
                0x00000000110106c4                nand_update_bbt
                0x00000000110109f8                nand_scan_bbt
                0x0000000011010e10                nand_default_bbt
 .text          0x0000000011010f14      0x25c C:\u-boot-2009.11-cloud\drivers\mtd\nand\libnand.a(nand_ecc.o)
                0x0000000011010f14                nand_calculate_ecc
                0x0000000011011030                nand_correct_data
 .text          0x0000000011011170        0x0 C:\u-boot-2009.11-cloud\drivers\mtd\nand\libnand.a(nand_ids.o)
 .text          0x0000000011011170      0xdac C:\u-boot-2009.11-cloud\drivers\mtd\nand\libnand.a(fsl_elbc_nand.o)
                0x0000000011011248                board_nand_init
 .text          0x0000000011011f1c      0x398 C:\u-boot-2009.11-cloud\drivers\spi\libspi.a(fsl_espi.o)
                0x0000000011011f1c                spi_init
                0x0000000011011f20                spi_claim_bus
                0x0000000011011f28                spi_release_bus
                0x0000000011011f2c                spi_cs_is_valid
                0x0000000011011f48                spi_cs_activate
                0x0000000011011f78                spi_cs_deactivate
                0x0000000011011f9c                espi_xfer
                0x00000000110120f0                spi_free_slave
                0x0000000011012110                spi_setup_slave
 .text          0x00000000110122b4      0x108 C:\u-boot-2009.11-cloud\cpu\mpc8xxx\lib8xxx.a(cpu.o)
                0x00000000110122b4                identify_cpu
                0x0000000011012328                cpu_numcores
                0x0000000011012334                cpu_eth_init
                0x0000000011012370                probecpu
 .text          0x00000000110123bc      0x1b0 C:\u-boot-2009.11-cloud\common\libcommon.a(cmd_bdinfo.o)
                0x0000000011012430                do_bdinfo
 .text          0x000000001101256c       0xc8 C:\u-boot-2009.11-cloud\common\libcommon.a(cmd_boot.o)
                0x000000001101256c                do_go_exec
                0x000000001101259c                do_go
 .text          0x0000000011012634     0x1438 C:\u-boot-2009.11-cloud\common\libcommon.a(cmd_bootm.o)
                0x0000000011012634                __board_lmb_reserve
                0x0000000011012638                __arch_lmb_reserve
                0x000000001101263c                __arch_preboot_os
                0x0000000011012880                do_iminfo
                0x000000001101291c                do_bootd
                0x0000000011013510                do_bootm_subcommand
                0x00000000110137b4                do_bootm
 .text          0x0000000011013a6c      0x4c0 C:\u-boot-2009.11-cloud\common\libcommon.a(cmd_elf.o)
                0x0000000011013a6c                load_elf_image
                0x0000000011013b24                valid_elf_image
                0x0000000011013b90                do_bootvx
                0x0000000011013e00                do_bootelf_exec
                0x0000000011013e74                do_bootelf
 .text          0x0000000011013f2c      0xe54 C:\u-boot-2009.11-cloud\common\libcommon.a(cmd_fdt.o)
                0x00000000110141e4                set_working_fdt_addr
                0x0000000011014240                do_fdt
 .text          0x0000000011014d80      0xad0 C:\u-boot-2009.11-cloud\common\libcommon.a(cmd_flash.o)
                0x0000000011014d80                flash_sect_roundb
                0x0000000011014fcc                flash_sect_protect
                0x0000000011015318                do_protect
                0x00000000110155ac                flash_sect_erase
                0x0000000011015650                do_flerase
                0x00000000110157d0                do_flinfo
 .text          0x0000000011015850      0x364 C:\u-boot-2009.11-cloud\common\libcommon.a(cmd_itest.o)
                0x00000000110158cc                binary_test
                0x0000000011015aec                do_itest
 .text          0x0000000011015bb4      0xeec C:\u-boot-2009.11-cloud\common\libcommon.a(cmd_load.o)
                0x0000000011015bb4                ktrans
                0x0000000011015bdc                chk1
                0x0000000011015cc4                k_data_init
                0x0000000011015d14                k_data_save
                0x0000000011015d64                k_data_restore
                0x0000000011015db4                k_data_char
                0x0000000011015e40                send_pad
                0x0000000011015e98                s1_sendpacket
                0x0000000011015eec                handle_send_packet
                0x000000001101610c                send_nack
                0x0000000011016198                send_ack
                0x0000000011016224                do_load_serial_bin
                0x00000000110168f8                do_load_serial
 .text          0x0000000011016aa0        0x0 C:\u-boot-2009.11-cloud\common\libcommon.a(cmd_mac.o)
 .text          0x0000000011016aa0      0xb04 C:\u-boot-2009.11-cloud\common\libcommon.a(cmd_mem.o)
                0x0000000011016aa0                do_mem_crc
                0x0000000011016b70                do_mem_base
                0x0000000011016bd8                do_mem_mtest
                0x0000000011016db8                do_mem_loop
                0x0000000011016ed8                do_mem_cmp
                0x0000000011017064                do_mem_mw
                0x0000000011017160                do_mem_cp
                0x0000000011017468                do_mem_nm
                0x0000000011017484                do_mem_mm
                0x00000000110174a0                do_mem_md
 .text          0x00000000110175a4      0x830 C:\u-boot-2009.11-cloud\common\libcommon.a(cmd_mii.o)
                0x000000001101761c                MII_dump_0_to_5
                0x00000000110178d0                do_mii
 .text          0x0000000011017dd4       0xac C:\u-boot-2009.11-cloud\common\libcommon.a(cmd_misc.o)
                0x0000000011017dd4                do_sleep
 .text          0x0000000011017e80      0x118 C:\u-boot-2009.11-cloud\common\libcommon.a(cmd_mp.o)
                0x0000000011017e80                cpu_cmd
 .text          0x0000000011017f98      0xef4 C:\u-boot-2009.11-cloud\common\libcommon.a(cmd_nand.o)
                0x0000000011018160                do_nandboot
                0x0000000011018704                do_nand
 .text          0x0000000011018e8c      0x3bc C:\u-boot-2009.11-cloud\common\libcommon.a(cmd_net.o)
                0x0000000011018e8c                do_ping
                0x0000000011019218                do_nfs
                0x0000000011019224                do_rarpb
                0x0000000011019230                do_tftpb
                0x000000001101923c                do_bootp
 .text          0x0000000011019248      0xa20 C:\u-boot-2009.11-cloud\common\libcommon.a(cmd_nvedit.o)
                0x0000000011019248                get_env_id
                0x0000000011019284                envmatch
                0x0000000011019314                getenv_r
                0x00000000110193f4                do_saveenv
                0x0000000011019448                getenv
                0x00000000110194e4                _do_setenv
                0x000000001101992c                do_setenv
                0x0000000011019988                setenv
                0x0000000011019a00                do_editenv
                0x0000000011019bac                do_printenv
 .text          0x0000000011019c68      0x180 C:\u-boot-2009.11-cloud\common\libcommon.a(cmd_setexpr.o)
                0x0000000011019c68                do_setexpr
 .text          0x0000000011019de8      0x410 C:\u-boot-2009.11-cloud\common\libcommon.a(cmd_sf.o)
 .text          0x000000001101a1f8      0x2a8 C:\u-boot-2009.11-cloud\common\libcommon.a(cmd_source.o)
                0x000000001101a1f8                source
                0x000000001101a400                do_source
 .text          0x000000001101a4a0      0xb28 C:\u-boot-2009.11-cloud\common\libcommon.a(command.o)
                0x000000001101a4a0                cmd_get_data_size
                0x000000001101a520                do_version
                0x000000001101a564                cmd_usage
                0x000000001101a5e4                do_echo
                0x000000001101a698                find_cmd_tbl
                0x000000001101a75c                find_cmd
                0x000000001101a7b0                _do_help
                0x000000001101a98c                do_help
                0x000000001101a9f8                do_exit
                0x000000001101aa4c                do_test
 .text          0x000000001101afc8      0x9c8 C:\u-boot-2009.11-cloud\common\libcommon.a(console.o)
                0x000000001101b098                fgetc
                0x000000001101b0f4                ftstc
                0x000000001101b150                fputc
                0x000000001101b1a8                fputs
                0x000000001101b200                disable_ctrlc
                0x000000001101b244                had_ctrlc
                0x000000001101b280                clear_ctrlc
                0x000000001101b2c0                dbg
                0x000000001101b2c4                console_init_f
                0x000000001101b2d4                getc
                0x000000001101b324                tstc
                0x000000001101b374                ctrlc
                0x000000001101b3f0                putc
                0x000000001101b444                puts
                0x000000001101b498                search_device
                0x000000001101b4fc                console_assign
                0x000000001101b578                vprintf
                0x000000001101b5cc                printf
                0x000000001101b658                stdio_print_current_devices
                0x000000001101b71c                console_init_r
                0x000000001101b878                fprintf
                0x000000001101b904                serial_printf
 .text          0x000000001101b990     0x1290 C:\u-boot-2009.11-cloud\common\libcommon.a(dlmalloc.o)
                0x000000001101b990                sbrk
                0x000000001101ba00                malloc_trim
                0x000000001101bae8                free
                0x000000001101bd58                cfree
                0x000000001101bd90                malloc
                0x000000001101c3a4                memalign
                0x000000001101c4e4                pvalloc
                0x000000001101c528                valloc
                0x000000001101c568                malloc_usable_size
                0x000000001101c5a8                mallopt
                0x000000001101c644                calloc
                0x000000001101c750                mem_malloc_init
                0x000000001101c7ac                realloc
 .text          0x000000001101cc20      0x238 C:\u-boot-2009.11-cloud\common\libcommon.a(env_common.o)
                0x000000001101cc20                env_get_char_memory
                0x000000001101cc70                env_get_addr
                0x000000001101ccc0                env_get_char
                0x000000001101cd24                env_crc_update
                0x000000001101cd74                set_default_env
                0x000000001101cddc                env_relocate
 .text          0x000000001101ce58      0x254 C:\u-boot-2009.11-cloud\common\libcommon.a(env_sf.o)
                0x000000001101ce58                env_get_char_spec
                0x000000001101ce64                env_init
                0x000000001101ceac                env_relocate_spec
                0x000000001101cf74                saveenv
 .text          0x000000001101d0ac      0x11c C:\u-boot-2009.11-cloud\common\libcommon.a(exports.o)
                0x000000001101d0b0                get_version
                0x000000001101d0b8                jumptable_init
 .text          0x000000001101d1c8      0xf38 C:\u-boot-2009.11-cloud\common\libcommon.a(fdt_support.o)
                0x000000001101d1c8                fdt_del_node_by_path
                0x000000001101d21c                fdt_resize
                0x000000001101d308                fdt_fixup_crypto_node
                0x000000001101d540                fdt_initrd
                0x000000001101d6f8                fdt_getprop_u32_default
                0x000000001101d764                fdt_fixup_memory
                0x000000001101d9a8                do_fixup_by_compat
                0x000000001101da70                do_fixup_by_compat_u32
                0x000000001101dabc                fdt_find_and_setprop
                0x000000001101db5c                do_fixup_by_path
                0x000000001101dbbc                fdt_fixup_ethernet
                0x000000001101dd38                do_fixup_by_path_u32
                0x000000001101dd84                do_fixup_by_prop
                0x000000001101de64                do_fixup_by_prop_u32
                0x000000001101deb0                fdt_chosen
 .text          0x000000001101e100      0x3b0 C:\u-boot-2009.11-cloud\common\libcommon.a(flash.o)
                0x000000001101e100                flash_protect
                0x000000001101e1e8                addr2info
                0x000000001101e258                flash_perror
                0x000000001101e348                flash_write
 .text          0x000000001101e4b0     0x2284 C:\u-boot-2009.11-cloud\common\libcommon.a(hush.o)
                0x000000001101e4b0                simple_itoa
                0x000000001101e560                mapset
                0x000000001101e5b4                do_showvar
                0x000000001101e6dc                u_boot_hush_start
                0x000000001101e79c                new_pipe
                0x000000001101eae4                unset_local_var
                0x000000001101ed64                reserved_word
                0x000000001101f408                set_local_var
                0x000000001101f5d4                update_ifs_map
                0x000000001101fd74                parse_file_outer
                0x000000001101fdd8                parse_string_outer
 .text          0x0000000011020734     0x2b60 C:\u-boot-2009.11-cloud\common\libcommon.a(image.o)
                0x0000000011020734                image_multi_count
                0x0000000011020778                image_multi_getimg
                0x0000000011020820                get_table_entry_name
                0x0000000011020850                genimg_get_os_name
                0x0000000011020894                genimg_get_arch_name
                0x00000000110208dc                genimg_get_type_name
                0x0000000011020924                genimg_get_comp_name
                0x000000001102096c                genimg_get_image
                0x0000000011020970                genimg_has_config
                0x0000000011020984                fit_image_hash_get_value
                0x00000000110209f0                fit_image_hash_get_algo
                0x0000000011020a4c                fit_image_get_data
                0x0000000011020ab8                fit_image_get_entry
                0x0000000011020b18                fit_image_get_load
                0x0000000011020b78                fit_get_timestamp
                0x0000000011020be8                fit_get_desc
                0x0000000011020c44                fit_conf_print
                0x0000000011020d50                fit_check_format
                0x0000000011020dd8                fit_conf_get_node
                0x0000000011020e68                fit_image_get_node
                0x0000000011020f20                fit_conf_get_fdt_node
                0x0000000011020f58                fit_conf_get_ramdisk_node
                0x0000000011020f90                fit_conf_get_kernel_node
                0x0000000011020fc8                get_table_entry_id
                0x0000000011021040                genimg_get_comp_id
                0x0000000011021088                fit_image_get_comp
                0x00000000110210f0                fit_image_check_comp
                0x0000000011021150                genimg_get_type_id
                0x0000000011021198                fit_image_get_type
                0x0000000011021200                fit_image_check_type
                0x0000000011021260                genimg_get_arch_id
                0x00000000110212a8                fit_image_get_arch
                0x0000000011021310                fit_image_check_arch
                0x0000000011021370                genimg_get_os_id
                0x00000000110213b4                fit_image_get_os
                0x000000001102141c                fit_image_check_os
                0x000000001102147c                image_check_dcrc
                0x00000000110215c8                fit_parse_subimage
                0x00000000110215e4                fit_parse_conf
                0x0000000011021600                boot_get_kbd
                0x000000001102166c                getenv_bootm_size
                0x00000000110216c8                getenv_bootm_low
                0x0000000011021724                getenv_yesno
                0x000000001102177c                boot_get_cmdline
                0x000000001102180c                memmove_wd
                0x0000000011021844                genimg_get_format
                0x00000000110218f8                boot_relocate_fdt
                0x0000000011021a48                boot_ramdisk_high
                0x0000000011021b90                genimg_print_size
                0x0000000011021be0                image_print_contents
                0x0000000011021d6c                image_check_hcrc
                0x0000000011021e28                fit_set_timestamp
                0x0000000011021eb8                fit_image_check_hashes
                0x0000000011022138                fit_all_image_check_hashes
                0x0000000011022248                fit_image_print_hash
                0x0000000011022350                fit_image_print
                0x0000000011022600                fit_print_contents
                0x000000001102284c                boot_get_fdt
                0x0000000011022d54                boot_get_ramdisk
 .text          0x0000000011023294     0x117c C:\u-boot-2009.11-cloud\common\libcommon.a(main.o)
                0x0000000011023294                show_boot_progress
                0x0000000011023294                __show_boot_progress
                0x0000000011023298                parse_line
                0x0000000011023358                do_run
                0x00000000110233f0                run_command
                0x00000000110239ec                readline_into_buffer
                0x00000000110242d4                readline
                0x0000000011024318                main_loop
 .text          0x0000000011024410      0x868 C:\u-boot-2009.11-cloud\common\libcommon.a(miiphyutil.o)
                0x0000000011024410                miiphy_init
                0x0000000011024458                miiphy_get_current_dev
                0x00000000110244a4                miiphy_listdev
                0x0000000011024528                miiphy_write
                0x00000000110245e0                miiphy_read
                0x0000000011024698                miiphy_is_1000base_x
                0x0000000011024700                miiphy_duplex
                0x000000001102483c                miiphy_speed
                0x000000001102494c                miiphy_reset
                0x0000000011024a30                miiphy_info
                0x0000000011024ae8                miiphy_set_current_dev
                0x0000000011024b64                miiphy_register
 .text          0x0000000011024c78      0x310 C:\u-boot-2009.11-cloud\common\libcommon.a(s_record.o)
                0x0000000011024d04                srec_decode
 .text          0x0000000011024f88      0x4c0 C:\u-boot-2009.11-cloud\common\libcommon.a(serial.o)
                0x0000000011024f88                __default_serial_console
                0x0000000011024f88                default_serial_console
                0x0000000011024fc0                serial_register
                0x0000000011025008                serial_reinit_all
                0x0000000011025060                serial_init
                0x00000000110250c8                serial_setbrg
                0x0000000011025130                serial_getc
                0x0000000011025198                serial_tstc
                0x0000000011025200                serial_putc
                0x0000000011025270                serial_puts
                0x00000000110252e0                serial_assign
                0x0000000011025354                serial_initialize
                0x00000000110253a0                serial_stdio_init
 .text          0x0000000011025448      0x240 C:\u-boot-2009.11-cloud\common\libcommon.a(stdio.o)
                0x0000000011025448                stdio_get_list
                0x0000000011025484                stdio_clone
                0x00000000110254f8                stdio_register
                0x0000000011025564                stdio_init
                0x0000000011025614                stdio_get_by_name
 .text          0x0000000011025688      0x410 C:\u-boot-2009.11-cloud\libfdt\libfdt.a(fdt.o)
                0x0000000011025688                fdt_check_header
                0x00000000110256ec                fdt_offset_ptr
                0x000000001102572c                fdt_next_tag
                0x000000001102583c                _fdt_check_node_offset
                0x00000000110258a0                fdt_next_node
                0x00000000110259a0                fdt_move
                0x0000000011025a14                _fdt_find_string
 .text          0x0000000011025a98      0xce8 C:\u-boot-2009.11-cloud\libfdt\libfdt.a(fdt_ro.o)
                0x0000000011025a98                fdt_string
                0x0000000011025aa8                fdt_num_mem_rsv
                0x0000000011025af4                fdt_get_mem_rsv
                0x0000000011025b74                fdt_supernode_atdepth_offset
                0x0000000011025c60                fdt_node_depth
                0x0000000011025cb8                fdt_parent_offset
                0x0000000011025d1c                fdt_get_name
                0x0000000011025db4                fdt_get_path
                0x0000000011025f28                fdt_get_property_namelen
                0x000000001102604c                fdt_getprop_namelen
                0x000000001102609c                fdt_getprop
                0x0000000011026100                fdt_node_check_compatible
                0x00000000110261b8                fdt_node_offset_by_compatible
                0x0000000011026250                fdt_node_offset_by_prop_value
                0x000000001102631c                fdt_node_offset_by_phandle
                0x0000000011026384                fdt_get_phandle
                0x00000000110263e4                fdt_get_property
                0x0000000011026448                fdt_subnode_offset_namelen
                0x0000000011026548                fdt_path_offset
                0x0000000011026660                fdt_get_alias_namelen
                0x00000000110266d0                fdt_get_alias
                0x0000000011026724                fdt_subnode_offset
 .text          0x0000000011026780      0xaf0 C:\u-boot-2009.11-cloud\libfdt\libfdt.a(fdt_rw.o)
                0x00000000110268d8                fdt_pack
                0x0000000011026a3c                fdt_del_mem_rsv
                0x0000000011026ae8                fdt_add_mem_rsv
                0x0000000011026ba4                fdt_open_into
                0x0000000011026d68                fdt_del_node
                0x0000000011026df8                fdt_add_subnode_namelen
                0x0000000011026f24                fdt_add_subnode
                0x0000000011026f80                fdt_delprop
                0x0000000011027004                fdt_setprop
                0x00000000110271b4                fdt_set_name
 .text          0x0000000011027270       0x74 C:\u-boot-2009.11-cloud\libfdt\libfdt.a(fdt_strerror.o)
                0x0000000011027270                fdt_strerror
 .text          0x00000000110272e4      0x1d0 C:\u-boot-2009.11-cloud\libfdt\libfdt.a(fdt_wip.o)
                0x00000000110272e4                _fdt_node_end_offset
                0x0000000011027354                fdt_nop_node
                0x00000000110273d4                fdt_nop_property
                0x0000000011027440                fdt_setprop_inplace
 .text          0x00000000110274b4      0x3f0 C:\u-boot-2009.11-cloud\board\freescale\p1_p2_rdb\libp1_p2_rdb.a(p1_p2_rdb.o)
                0x00000000110274b4                get_board_sys_clk
                0x00000000110274e4                board_lmb_reserve
                0x000000001102751c                ft_board_setup
                0x000000001102757c                board_eth_init
                0x00000000110276b4                board_early_init_r
                0x00000000110277e0                checkboard
 .text          0x00000000110278a4      0x190 C:\u-boot-2009.11-cloud\board\freescale\p1_p2_rdb\libp1_p2_rdb.a(ddr.o)
                0x00000000110278a4                initdram
                0x00000000110278e8                fixed_sdram
 .text          0x0000000011027a34        0x0 C:\u-boot-2009.11-cloud\board\freescale\p1_p2_rdb\libp1_p2_rdb.a(law.o)
 .text          0x0000000011027a34        0x0 C:\u-boot-2009.11-cloud\board\freescale\p1_p2_rdb\libp1_p2_rdb.a(tlb.o)
 .text          0x0000000011027a34      0x2e0 C:\u-boot-2009.11-cloud\lib_generic\libgeneric.a(crc32.o)
                0x0000000011027a34                crc32
                0x0000000011027b8c                crc32_no_comp
                0x0000000011027cdc                crc32_wd
 .text          0x0000000011027d14        0x0 C:\u-boot-2009.11-cloud\lib_generic\libgeneric.a(ctype.o)
 .text          0x0000000011027d14      0x2b0 C:\u-boot-2009.11-cloud\lib_generic\libgeneric.a(display_options.o)
                0x0000000011027d14                print_size
                0x0000000011027de4                display_options
                0x0000000011027e28                print_buffer
 .text          0x0000000011027fc4      0x260 C:\u-boot-2009.11-cloud\lib_generic\libgeneric.a(gunzip.o)
                0x0000000011027fc4                zunzip
                0x00000000110280c0                gunzip
                0x00000000110281a4                zfree
                0x00000000110281e0                zalloc
 .text          0x0000000011028224      0x640 C:\u-boot-2009.11-cloud\lib_generic\libgeneric.a(lmb.o)
                0x0000000011028224                lmb_dump_all
                0x0000000011028228                lmb_init
                0x000000001102849c                lmb_add
                0x00000000110284a0                lmb_free
                0x00000000110285cc                lmb_reserve
                0x00000000110285d4                lmb_overlaps_region
                0x0000000011028638                __lmb_alloc_base
                0x0000000011028778                lmb_is_reserved
                0x00000000110287cc                lmb_alloc_base
                0x0000000011028828                lmb_alloc
 .text          0x0000000011028864      0xd30 C:\u-boot-2009.11-cloud\lib_generic\libgeneric.a(md5.o)
                0x000000001102947c                md5_wd
                0x0000000011029508                md5
 .text          0x0000000011029594     0x17ec C:\u-boot-2009.11-cloud\lib_generic\libgeneric.a(sha1.o)
                0x0000000011029594                sha1_starts
                0x000000001102a8f0                sha1_self_test
                0x000000001102a8f8                sha1_update
                0x000000001102a9dc                sha1_finish
                0x000000001102ab4c                sha1_hmac
                0x000000001102acb0                sha1_csum_wd
                0x000000001102ad18                sha1_csum
 .text          0x000000001102ad80      0x460 C:\u-boot-2009.11-cloud\lib_generic\libgeneric.a(string.o)
                0x000000001102ad80                strncat
                0x000000001102adf8                strncmp
                0x000000001102ae38                strchr
                0x000000001102ae64                strnlen
                0x000000001102ae90                strspn
                0x000000001102aed0                strpbrk
                0x000000001102af0c                strtok
                0x000000001102afbc                strsep
                0x000000001102b024                strswab
                0x000000001102b06c                memscan
                0x000000001102b090                strrchr
                0x000000001102b0f4                strstr
                0x000000001102b180                strdup
 .text          0x000000001102b1e0       0x84 C:\u-boot-2009.11-cloud\lib_generic\libgeneric.a(strmhz.o)
                0x000000001102b1e0                strmhz
 .text          0x000000001102b264      0xff8 C:\u-boot-2009.11-cloud\lib_generic\libgeneric.a(vsprintf.o)
                0x000000001102b264                simple_strtoul
                0x000000001102b358                simple_strtol
                0x000000001102b3ac                ustrtoul
                0x000000001102b8d4                panic
                0x000000001102ba50                vsprintf
                0x000000001102c1e8                sprintf
 .text          0x000000001102c25c     0x27ac C:\u-boot-2009.11-cloud\lib_generic\libgeneric.a(zlib.o)
                0x000000001102c25c                inflate_fast
                0x000000001102c6d0                inflate_table
                0x000000001102cbdc                inflateReset
                0x000000001102cc90                inflateInit2_
                0x000000001102cdd4                inflateInit_
                0x000000001102ce1c                inflateEnd
                0x000000001102cecc                adler32
                0x000000001102d1b4                zcfree
                0x000000001102d1f0                zcalloc
                0x000000001102d22c                inflate
 .text          0x000000001102ea08      0x734 C:\u-boot-2009.11-cloud\board\freescale\common\libfreescale.a(sys_eeprom.o)
                0x000000001102eaec                mac_read_from_eeprom
                0x000000001102ecb0                do_mac
 .text          0x000000001102f13c      0x3d4 C:\u-boot-2009.11-cloud\cpu\mpc85xx\libmpc85xx.a(ddr-gen3.o)
                0x000000001102f13c                fsl_ddr_set_memctl_regs
 .text          0x000000001102f510      0xd58 C:\u-boot-2009.11-cloud\cpu\mpc85xx\libmpc85xx.a(fdt.o)
                0x000000001102f558                fdt_fixup_1588
                0x000000001102f5ec                fdt_fixup_usb_mode
                0x000000001102f6cc                fdt_fixup_add_2nd_usb
                0x000000001102fa68                fdt_add_enet_stashing
                0x000000001102fb34                ft_fixup_cpu
                0x000000001102fd14                ft_cpu_setup
 .text          0x0000000011030268      0x484 C:\u-boot-2009.11-cloud\cpu\mpc85xx\libmpc85xx.a(cpu.o)
                0x0000000011030268                get_tbclk
                0x0000000011030278                cpu_mmc_init
                0x0000000011030280                upmconfig
                0x0000000011030454                do_reset
                0x00000000110304a8                checkcpu
 .text          0x00000000110306ec       0xc4 C:\u-boot-2009.11-cloud\cpu\mpc85xx\libmpc85xx.a(interrupts.o)
                0x00000000110306ec                irq_install_handler
                0x00000000110306f0                irq_free_handler
                0x00000000110306f4                timer_interrupt_cpu
                0x0000000011030700                do_irqinfo
                0x0000000011030708                interrupt_init_cpu
 .text          0x00000000110307b0      0x28c C:\u-boot-2009.11-cloud\cpu\mpc85xx\libmpc85xx.a(speed.o)
                0x00000000110307b0                get_bus_freq
                0x00000000110307b8                get_ddr_freq
                0x00000000110307c0                do_clocks
                0x00000000110308b0                get_sys_info
                0x00000000110309b8                get_clocks
 .text          0x0000000011030a3c      0x43c C:\u-boot-2009.11-cloud\lib_ppc\libppc.a(bootm.o)
                0x0000000011030bf0                do_bootm_linux
                0x0000000011030dcc                arch_lmb_reserve
 .text          0x0000000011030e78       0x5c C:\u-boot-2009.11-cloud\lib_ppc\libppc.a(cache.o)
                0x0000000011030e78                flush_cache
 .text          0x0000000011030ed4      0x814 C:\u-boot-2009.11-cloud\drivers\mtd\nand\libnand.a(nand_util.o)
                0x0000000011030f94                nand_read_skip_bad
                0x0000000011031188                nand_write_skip_bad
                0x000000001103138c                nand_erase_opts
 .text          0x00000000110316e8      0x3a8 C:\u-boot-2009.11-cloud\drivers\mtd\spi\libspi_flash.a(spi_flash.o)
                0x00000000110316e8                spi_flash_free
                0x0000000011031730                spi_flash_cmd_write
                0x00000000110317e4                spi_flash_cmd_read
                0x00000000110318a0                spi_flash_read_common
                0x0000000011031918                spi_flash_cmd
                0x00000000110319dc                spi_flash_probe
 .text          0x0000000011031a90      0x514 C:\u-boot-2009.11-cloud\drivers\mtd\spi\libspi_flash.a(spansion.o)
                0x0000000011031a90                spi_flash_probe_spansion
                0x0000000011031e90                spansion_erase
 .text          0x0000000011031fa4     0x1564 C:\u-boot-2009.11-cloud\drivers\net\libnet.a(tsec.o)
                0x0000000011031fa4                tsec_local_mdio_read
                0x0000000011031fdc                mii_cr_init
                0x0000000011031ff4                mii_parse_link
                0x0000000011032138                mii_BCM54xx_wirespeed
                0x0000000011032184                mii_parse_cis8201
                0x00000000110321c0                mii_parse_vsc8244
                0x00000000110321fc                mii_parse_dm9161_scsr
                0x0000000011032234                mii_cis8204_fixled
                0x0000000011032284                mii_cis8204_setmode
                0x000000001103229c                mii_m88e1111s_setmode
                0x00000000110323dc                mii_88E1121_set_led
                0x0000000011032514                mii_parse_lxt971_sr2
                0x0000000011032584                mii_parse_dp83865_lanr
                0x00000000110325d0                phy_run_commands
                0x000000001103275c                get_phy_info
                0x0000000011032848                mii_parse_BCM54xx_sr
                0x0000000011032a20                mii_parse_RTL8211B_sr
                0x0000000011032b50                mii_parse_88E1011_psr
                0x0000000011032c7c                mii_parse_sr
                0x00000000110330bc                tsec_initialize
                0x000000001103334c                tsec_eth_init
                0x00000000110333b4                tsec_standard_init
 .text          0x0000000011033508      0x184 C:\u-boot-2009.11-cloud\drivers\net\libnet.a(vsc7385.o)
                0x0000000011033508                vsc7385_upload_firmware
 .text          0x000000001103368c       0xc4 C:\u-boot-2009.11-cloud\cpu\mpc8xxx\lib8xxx.a(fdt.o)
                0x000000001103368c                ft_fixup_num_cores
 .text          0x0000000011033750      0x26c C:\u-boot-2009.11-cloud\drivers\rtc\librtc.a(date.o)
                0x0000000011033750                GregorianDay
                0x0000000011033848                to_tm
                0x0000000011033950                mktime
 .text          0x00000000110339bc      0x394 C:\u-boot-2009.11-cloud\drivers\rtc\librtc.a(ds1337.o)
                0x0000000011033a30                rtc_reset
                0x0000000011033a3c                rtc_set
                0x0000000011033ba4                rtc_get
 .text          0x0000000011033d50      0x848 C:\u-boot-2009.11-cloud\drivers\serial\libserial.a(serial.o)
                0x0000000011033da4                eserial4_init
                0x0000000011033df0                eserial3_init
                0x0000000011033e3c                eserial2_init
                0x0000000011033e90                eserial1_init
                0x0000000011033ee4                _serial_setbrg
                0x0000000011033f3c                eserial4_setbrg
                0x0000000011033f78                eserial3_setbrg
                0x0000000011033fb4                eserial2_setbrg
                0x0000000011033ff0                eserial1_setbrg
                0x000000001103402c                _serial_tstc
                0x0000000011034074                eserial4_tstc
                0x00000000110340b0                eserial3_tstc
                0x00000000110340ec                eserial2_tstc
                0x0000000011034128                eserial1_tstc
                0x0000000011034164                _serial_getc
                0x00000000110341ac                eserial4_getc
                0x00000000110341e8                eserial3_getc
                0x0000000011034224                eserial2_getc
                0x0000000011034260                eserial1_getc
                0x000000001103429c                _serial_putc_raw
                0x00000000110342ec                _serial_putc
                0x0000000011034360                eserial4_putc
                0x000000001103439c                eserial3_putc
                0x00000000110343d8                eserial2_putc
                0x0000000011034414                eserial1_putc
                0x0000000011034450                _serial_puts
                0x00000000110344a8                eserial4_puts
                0x00000000110344e4                eserial3_puts
                0x0000000011034520                eserial2_puts
                0x000000001103455c                eserial1_puts
 .text          0x0000000011034598       0xc8 C:\u-boot-2009.11-cloud\drivers\serial\libserial.a(ns16550.o)
                0x0000000011034598                NS16550_init
                0x00000000110345e0                NS16550_reinit
                0x000000001103462c                NS16550_putc
                0x0000000011034640                NS16550_getc
                0x0000000011034654                NS16550_tstc
 .text          0x0000000011034660      0x108 C:\u-boot-2009.11-cloud\lib_generic\libgeneric.a(div64.o)
                0x0000000011034660                __div64_32
 .text          0x0000000011034768       0x38 C:\Cross_Tools\4.3.2\libgcc.a(_lshrdi3.o)
                0x0000000011034768                __lshrdi3
 .text          0x00000000110347a0       0x38 C:\Cross_Tools\4.3.2\libgcc.a(_ashldi3.o)
                0x00000000110347a0                __ashldi3
 .text          0x00000000110347d8       0x38 C:\Cross_Tools\4.3.2\libgcc.a(_ashrdi3.o)
                0x00000000110347d8                __ashrdi3
 *(.got1)
                0x0000000011034810                _etext = .
                0x0000000011034810                PROVIDE (etext, .)

.rodata         0x0000000011034810     0xa860
 *(.eh_frame)
 *(SORT(.rodata*))
 .rodata        0x0000000011034810        0x4 C:\u-boot-2009.11-cloud\cpu\mpc85xx\libmpc85xx.a(mp.o)
 .rodata        0x0000000011034814       0x27 C:\u-boot-2009.11-cloud\net\libnet.a(net.o)
 *fill*         0x000000001103483b        0x1 00
 .rodata        0x000000001103483c       0x38 C:\u-boot-2009.11-cloud\net\libnet.a(nfs.o)
 .rodata        0x0000000011034874       0x14 C:\u-boot-2009.11-cloud\net\libnet.a(tftp.o)
 .rodata        0x0000000011034888        0x8 C:\u-boot-2009.11-cloud\drivers\i2c\libi2c.a(fsl_i2c.o)
 .rodata        0x0000000011034890        0x8 C:\u-boot-2009.11-cloud\drivers\mtd\libmtd.a(cfi_flash.o)
 .rodata        0x0000000011034898        0x5 C:\u-boot-2009.11-cloud\drivers\mtd\nand\libnand.a(nand.o)
 *fill*         0x000000001103489d        0x3 00
 .rodata        0x00000000110348a0       0x6e C:\u-boot-2009.11-cloud\drivers\mtd\nand\libnand.a(nand_base.o)
 *fill*         0x000000001103490e        0x2 00
 .rodata        0x0000000011034910      0x100 C:\u-boot-2009.11-cloud\drivers\mtd\nand\libnand.a(nand_ecc.o)
 .rodata        0x0000000011034a10       0x24 C:\u-boot-2009.11-cloud\common\libcommon.a(cmd_fdt.o)
 .rodata        0x0000000011034a34       0x30 C:\u-boot-2009.11-cloud\common\libcommon.a(cmd_itest.o)
 .rodata        0x0000000011034a64       0x24 C:\u-boot-2009.11-cloud\common\libcommon.a(cmd_nvedit.o)
 .rodata        0x0000000011034a88       0x58 C:\u-boot-2009.11-cloud\common\libcommon.a(command.o)
 .rodata        0x0000000011034ae0       0xad C:\u-boot-2009.11-cloud\common\libcommon.a(fdt_support.o)
 *fill*         0x0000000011034b8d        0x3 00
 .rodata        0x0000000011034b90       0x20 C:\u-boot-2009.11-cloud\common\libcommon.a(main.o)
 .rodata        0x0000000011034bb0       0x28 C:\u-boot-2009.11-cloud\common\libcommon.a(s_record.o)
 .rodata        0x0000000011034bd8       0x24 C:\u-boot-2009.11-cloud\libfdt\libfdt.a(fdt.o)
 .rodata        0x0000000011034bfc      0x400 C:\u-boot-2009.11-cloud\lib_generic\libgeneric.a(crc32.o)
 .rodata        0x0000000011034ffc       0x40 C:\u-boot-2009.11-cloud\lib_generic\libgeneric.a(sha1.o)
 .rodata        0x000000001103503c       0x21 C:\u-boot-2009.11-cloud\lib_generic\libgeneric.a(vsprintf.o)
                0x000000001103504c                hex_asc
 *fill*         0x000000001103505d        0x3 00
 .rodata        0x0000000011035060      0xa16 C:\u-boot-2009.11-cloud\lib_generic\libgeneric.a(zlib.o)
 *fill*         0x0000000011035a76        0x2 00
 .rodata        0x0000000011035a78       0x18 C:\u-boot-2009.11-cloud\cpu\mpc85xx\libmpc85xx.a(ddr-gen3.o)
 .rodata        0x0000000011035a90       0x39 C:\u-boot-2009.11-cloud\cpu\mpc85xx\libmpc85xx.a(fdt.o)
 *fill*         0x0000000011035ac9        0x3 00
 .rodata        0x0000000011035acc        0xa C:\u-boot-2009.11-cloud\cpu\mpc85xx\libmpc85xx.a(cpu.o)
 *fill*         0x0000000011035ad6        0x2 00
 .rodata        0x0000000011035ad8       0x1c C:\u-boot-2009.11-cloud\drivers\net\libnet.a(tsec.o)
 .rodata        0x0000000011035af4       0x30 C:\u-boot-2009.11-cloud\drivers\rtc\librtc.a(date.o)
 .rodata        0x0000000011035b24       0x10 C:\u-boot-2009.11-cloud\drivers\serial\libserial.a(serial.o)
 .rodata        0x0000000011035b34        0x7 C:\u-boot-2009.11-cloud\net\libnet.a(eth.o)
 .rodata        0x0000000011035b3b        0x7 C:\u-boot-2009.11-cloud\board\freescale\common\libfreescale.a(sys_eeprom.o)
 .rodata.str1.1
                0x0000000011035b42       0x51 C:\u-boot-2009.11-cloud\cpu\mpc85xx\libmpc85xx.a(cpu_init.o)
                                         0x5c (size before relaxing)
 .rodata.str1.1
                0x0000000011035b93       0x10 C:\u-boot-2009.11-cloud\cpu\mpc85xx\libmpc85xx.a(tlb.o)
 .rodata.str1.1
                0x0000000011035ba3      0x419 C:\u-boot-2009.11-cloud\cpu\mpc85xx\libmpc85xx.a(traps.o)
                                        0x41b (size before relaxing)
 .rodata.str1.1
                0x0000000011035fbc      0x135 C:\u-boot-2009.11-cloud\cpu\mpc85xx\libmpc85xx.a(mp.o)
                                        0x137 (size before relaxing)
 .rodata.str1.1
                0x00000000110360f1      0x1d3 C:\u-boot-2009.11-cloud\lib_ppc\libppc.a(board.o)
                                        0x1d6 (size before relaxing)
 .rodata.str1.1
                0x00000000110362c4       0xc2 C:\u-boot-2009.11-cloud\net\libnet.a(eth.o)
                                         0xe4 (size before relaxing)
 .rodata.str1.1
                0x0000000011036386      0x20c C:\u-boot-2009.11-cloud\net\libnet.a(net.o)
                                        0x217 (size before relaxing)
 .rodata.str1.1
                0x0000000011036592      0x191 C:\u-boot-2009.11-cloud\net\libnet.a(nfs.o)
                                        0x1a9 (size before relaxing)
 .rodata.str1.1
                0x0000000011036723       0x20 C:\u-boot-2009.11-cloud\net\libnet.a(rarp.o)
                                         0x47 (size before relaxing)
 .rodata.str1.1
                0x0000000011036743      0x117 C:\u-boot-2009.11-cloud\net\libnet.a(tftp.o)
                                        0x1f6 (size before relaxing)
 .rodata.str1.1
                0x000000001103685a       0x70 C:\u-boot-2009.11-cloud\net\libnet.a(bootp.o)
                                         0xad (size before relaxing)
 .rodata.str1.1
                0x00000000110368ca       0xab C:\u-boot-2009.11-cloud\drivers\i2c\libi2c.a(fsl_i2c.o)
 .rodata.str1.1
                0x0000000011036975       0x4a C:\u-boot-2009.11-cloud\drivers\misc\libmisc.a(fsl_law.o)
 .rodata.str1.1
                0x00000000110369bf      0x339 C:\u-boot-2009.11-cloud\drivers\mtd\libmtd.a(cfi_flash.o)
                                        0x341 (size before relaxing)
 .rodata.str1.1
                0x0000000011036cf8        0x8 C:\u-boot-2009.11-cloud\drivers\mtd\nand\libnand.a(nand.o)
 .rodata.str1.1
                0x0000000011036d00      0x30c C:\u-boot-2009.11-cloud\drivers\mtd\nand\libnand.a(nand_base.o)
 .rodata.str1.1
                0x000000001103700c      0x300 C:\u-boot-2009.11-cloud\drivers\mtd\nand\libnand.a(nand_bbt.o)
 .rodata.str1.1
                0x000000001103730c      0x31f C:\u-boot-2009.11-cloud\drivers\mtd\nand\libnand.a(nand_ids.o)
                                        0x335 (size before relaxing)
 .rodata.str1.1
                0x000000001103762b      0x158 C:\u-boot-2009.11-cloud\drivers\mtd\nand\libnand.a(fsl_elbc_nand.o)
 .rodata.str1.1
                0x0000000011037783      0x107 C:\u-boot-2009.11-cloud\common\libcommon.a(cmd_bdinfo.o)
                                        0x110 (size before relaxing)
 .rodata.str1.1
                0x000000001103788a       0xec C:\u-boot-2009.11-cloud\common\libcommon.a(cmd_boot.o)
                                         0xf0 (size before relaxing)
 .rodata.str1.1
                0x0000000011037976      0xdee C:\u-boot-2009.11-cloud\common\libcommon.a(cmd_bootm.o)
                                        0xe57 (size before relaxing)
 .rodata.str1.1
                0x0000000011038764      0x278 C:\u-boot-2009.11-cloud\common\libcommon.a(cmd_elf.o)
                                        0x29a (size before relaxing)
 .rodata.str1.1
                0x00000000110389dc      0x940 C:\u-boot-2009.11-cloud\common\libcommon.a(cmd_fdt.o)
                                        0x96e (size before relaxing)
 .rodata.str1.1
                0x000000001103931c      0x707 C:\u-boot-2009.11-cloud\common\libcommon.a(cmd_flash.o)
                                        0x730 (size before relaxing)
 .rodata.str1.1
                0x0000000011039a23       0xb1 C:\u-boot-2009.11-cloud\common\libcommon.a(cmd_itest.o)
                                         0xb5 (size before relaxing)
 .rodata.str1.1
                0x0000000011039ad4      0x356 C:\u-boot-2009.11-cloud\common\libcommon.a(cmd_load.o)
                                        0x36c (size before relaxing)
 .rodata.str1.1
                0x0000000011039e2a      0x1ab C:\u-boot-2009.11-cloud\common\libcommon.a(cmd_mac.o)
 .rodata.str1.1
                0x0000000011039fd5      0x493 C:\u-boot-2009.11-cloud\common\libcommon.a(cmd_mem.o)
                                        0x4a9 (size before relaxing)
 .rodata.str1.1
                0x000000001103a468      0x752 C:\u-boot-2009.11-cloud\common\libcommon.a(cmd_mii.o)
                                        0x773 (size before relaxing)
 .rodata.str1.1
                0x000000001103abba       0x5f C:\u-boot-2009.11-cloud\common\libcommon.a(cmd_misc.o)
 .rodata.str1.1
                0x000000001103ac19      0x2bd C:\u-boot-2009.11-cloud\common\libcommon.a(cmd_mp.o)
                                        0x2d2 (size before relaxing)
 .rodata.str1.1
                0x000000001103aed6      0x752 C:\u-boot-2009.11-cloud\common\libcommon.a(cmd_nand.o)
                                        0x7a3 (size before relaxing)
 .rodata.str1.1
                0x000000001103b628      0x1ac C:\u-boot-2009.11-cloud\common\libcommon.a(cmd_net.o)
                                        0x1ee (size before relaxing)
 .rodata.str1.1
                0x000000001103b7d4      0x33b C:\u-boot-2009.11-cloud\common\libcommon.a(cmd_nvedit.o)
                                        0x39b (size before relaxing)
 .rodata.str1.1
                0x000000001103bb0f       0xf0 C:\u-boot-2009.11-cloud\common\libcommon.a(cmd_setexpr.o)
                                         0xf4 (size before relaxing)
 .rodata.str1.1
                0x000000001103bbff      0x279 C:\u-boot-2009.11-cloud\common\libcommon.a(cmd_sf.o)
                                        0x28a (size before relaxing)
 .rodata.str1.1
                0x000000001103be78      0x1d0 C:\u-boot-2009.11-cloud\common\libcommon.a(cmd_source.o)
                                        0x1fc (size before relaxing)
 .rodata.str1.1
                0x000000001103c048      0x290 C:\u-boot-2009.11-cloud\common\libcommon.a(command.o)
                                        0x2cd (size before relaxing)
 .rodata.str1.1
                0x000000001103c2d8       0x77 C:\u-boot-2009.11-cloud\common\libcommon.a(console.o)
                                         0x8f (size before relaxing)
 .rodata.str1.1
                0x000000001103c34f       0x33 C:\u-boot-2009.11-cloud\common\libcommon.a(env_common.o)
 .rodata.str1.1
                0x000000001103c382       0x5e C:\u-boot-2009.11-cloud\common\libcommon.a(env_sf.o)
                                         0x97 (size before relaxing)
 .rodata.str1.1
                0x000000001103c3e0      0x2cf C:\u-boot-2009.11-cloud\common\libcommon.a(fdt_support.o)
                                        0x30b (size before relaxing)
 .rodata.str1.1
                0x000000001103c6af      0x12b C:\u-boot-2009.11-cloud\common\libcommon.a(flash.o)
 .rodata.str1.1
                0x000000001103c7da      0x238 C:\u-boot-2009.11-cloud\common\libcommon.a(hush.o)
                                        0x266 (size before relaxing)
 .rodata.str1.1
                0x000000001103ca12      0xc90 C:\u-boot-2009.11-cloud\common\libcommon.a(image.o)
                                        0xdc7 (size before relaxing)
 .rodata.str1.1
                0x000000001103d6a2       0x72 C:\u-boot-2009.11-cloud\common\libcommon.a(main.o)
                                         0xd6 (size before relaxing)
 .rodata.str1.1
                0x000000001103d714      0x1cb C:\u-boot-2009.11-cloud\common\libcommon.a(miiphyutil.o)
                                        0x1db (size before relaxing)
 .rodata.str1.1
                0x0000000000000000       0x1b C:\u-boot-2009.11-cloud\common\libcommon.a(stdio.o)
 .rodata.str1.1
                0x000000001103d8df        0xe C:\u-boot-2009.11-cloud\libfdt\libfdt.a(fdt_ro.o)
                                         0x22 (size before relaxing)
 .rodata.str1.1
                0x000000001103d8ed       0xf1 C:\u-boot-2009.11-cloud\libfdt\libfdt.a(fdt_strerror.o)
 .rodata.str1.1
                0x000000001103d9de      0x190 C:\u-boot-2009.11-cloud\board\freescale\p1_p2_rdb\libp1_p2_rdb.a(p1_p2_rdb.o)
 .rodata.str1.1
                0x000000001103db6e       0x54 C:\u-boot-2009.11-cloud\board\freescale\p1_p2_rdb\libp1_p2_rdb.a(ddr.o)
 .rodata.str1.1
                0x000000001103dbc2       0x18 C:\u-boot-2009.11-cloud\lib_generic\libgeneric.a(display_options.o)
                                         0x36 (size before relaxing)
 .rodata.str1.1
                0x000000001103dbda       0x85 C:\u-boot-2009.11-cloud\lib_generic\libgeneric.a(gunzip.o)
 .rodata.str1.1
                0x000000001103dc5f       0x34 C:\u-boot-2009.11-cloud\lib_generic\libgeneric.a(lmb.o)
 .rodata.str1.1
                0x000000001103dc93        0x7 C:\u-boot-2009.11-cloud\lib_generic\libgeneric.a(strmhz.o)
                                          0xb (size before relaxing)
 .rodata.str1.1
                0x000000001103dc9a        0xe C:\u-boot-2009.11-cloud\lib_generic\libgeneric.a(vsprintf.o)
 .rodata.str1.1
                0x000000001103dca8      0x21c C:\u-boot-2009.11-cloud\lib_generic\libgeneric.a(zlib.o)
                                        0x21d (size before relaxing)
 .rodata.str1.1
                0x000000001103dec4      0x1cd C:\u-boot-2009.11-cloud\board\freescale\common\libfreescale.a(sys_eeprom.o)
                                        0x1ee (size before relaxing)
 .rodata.str1.1
                0x000000001103e091       0x1d C:\u-boot-2009.11-cloud\cpu\mpc85xx\libmpc85xx.a(ddr-gen3.o)
 .rodata.str1.1
                0x000000001103e0ae      0x4b5 C:\u-boot-2009.11-cloud\cpu\mpc85xx\libmpc85xx.a(fdt.o)
                                        0x530 (size before relaxing)
 .rodata.str1.1
                0x000000001103e563      0x1d9 C:\u-boot-2009.11-cloud\cpu\mpc85xx\libmpc85xx.a(cpu.o)
                                        0x1e3 (size before relaxing)
 .rodata.str1.1
                0x000000001103e73c      0x123 C:\u-boot-2009.11-cloud\cpu\mpc85xx\libmpc85xx.a(speed.o)
                                        0x12a (size before relaxing)
 .rodata.str1.1
                0x000000001103e85f       0x9b C:\u-boot-2009.11-cloud\lib_ppc\libppc.a(bootm.o)
                                         0xc8 (size before relaxing)
 .rodata.str1.1
                0x000000001103e8fa      0x24c C:\u-boot-2009.11-cloud\drivers\mtd\nand\libnand.a(nand_util.o)
                                        0x24e (size before relaxing)
 .rodata.str1.1
                0x000000001103eb46       0x45 C:\u-boot-2009.11-cloud\drivers\mtd\spi\libspi_flash.a(spansion.o)
 .rodata.str1.1
                0x000000001103eb8b      0x3db C:\u-boot-2009.11-cloud\drivers\net\libnet.a(tsec.o)
                                        0x401 (size before relaxing)
 .rodata.str1.1
                0x0000000000000000       0x14 C:\u-boot-2009.11-cloud\cpu\mpc8xxx\lib8xxx.a(fdt.o)
 .rodata.str1.1
                0x000000001103ef66      0x10a C:\u-boot-2009.11-cloud\drivers\rtc\librtc.a(ds1337.o)

.fini
 *(.fini)

.ctors
 *(.ctors)

.dtors
 *(.dtors)
                0x000000001103f100                . = ((. + 0xff) & 0xffffff00)
                0x000000001103f100                _erotext = .
                0x000000001103f100                PROVIDE (erotext, .)

.reloc          0x000000001103f100     0x286c
 *(.got)
                0x000000001103f100                _GOT2_TABLE_ = .
 *(.got2)
 .got2          0x000000001103f100       0x24 start.o
 .got2          0x000000001103f124       0x24 C:\u-boot-2009.11-cloud\cpu\mpc85xx\libmpc85xx.a(cpu_init.o)
 .got2          0x000000001103f148        0x0 C:\u-boot-2009.11-cloud\cpu\mpc85xx\libmpc85xx.a(cpu_init_early.o)
 .got2          0x000000001103f148        0xc C:\u-boot-2009.11-cloud\cpu\mpc85xx\libmpc85xx.a(tlb.o)
 .got2          0x000000001103f154       0x98 C:\u-boot-2009.11-cloud\cpu\mpc85xx\libmpc85xx.a(traps.o)
 .got2          0x000000001103f1ec       0x44 C:\u-boot-2009.11-cloud\cpu\mpc85xx\libmpc85xx.a(mp.o)
 .got2          0x000000001103f230       0x80 C:\u-boot-2009.11-cloud\lib_ppc\libppc.a(board.o)
 .got2          0x000000001103f2b0        0x8 C:\u-boot-2009.11-cloud\lib_ppc\libppc.a(extable.o)
 .got2          0x000000001103f2b8        0x4 C:\u-boot-2009.11-cloud\lib_ppc\libppc.a(interrupts.o)
 .got2          0x000000001103f2bc        0x0 C:\u-boot-2009.11-cloud\lib_ppc\libppc.a(time.o)
 .got2          0x000000001103f2bc       0x4c C:\u-boot-2009.11-cloud\net\libnet.a(eth.o)
 .got2          0x000000001103f308      0x114 C:\u-boot-2009.11-cloud\net\libnet.a(net.o)
 .got2          0x000000001103f41c       0x8c C:\u-boot-2009.11-cloud\net\libnet.a(nfs.o)
 .got2          0x000000001103f4a8       0x30 C:\u-boot-2009.11-cloud\net\libnet.a(rarp.o)
 .got2          0x000000001103f4d8       0xb0 C:\u-boot-2009.11-cloud\net\libnet.a(tftp.o)
 .got2          0x000000001103f588       0x74 C:\u-boot-2009.11-cloud\net\libnet.a(bootp.o)
 .got2          0x000000001103f5fc       0x28 C:\u-boot-2009.11-cloud\drivers\i2c\libi2c.a(fsl_i2c.o)
 .got2          0x000000001103f624       0x10 C:\u-boot-2009.11-cloud\drivers\misc\libmisc.a(fsl_law.o)
 .got2          0x000000001103f634       0xa4 C:\u-boot-2009.11-cloud\drivers\mtd\libmtd.a(cfi_flash.o)
 .got2          0x000000001103f6d8       0x14 C:\u-boot-2009.11-cloud\drivers\mtd\nand\libnand.a(nand.o)
 .got2          0x000000001103f6ec      0x114 C:\u-boot-2009.11-cloud\drivers\mtd\nand\libnand.a(nand_base.o)
 .got2          0x000000001103f800       0x48 C:\u-boot-2009.11-cloud\drivers\mtd\nand\libnand.a(nand_bbt.o)
 .got2          0x000000001103f848        0x4 C:\u-boot-2009.11-cloud\drivers\mtd\nand\libnand.a(nand_ecc.o)
 .got2          0x000000001103f84c        0x0 C:\u-boot-2009.11-cloud\drivers\mtd\nand\libnand.a(nand_ids.o)
 .got2          0x000000001103f84c       0x4c C:\u-boot-2009.11-cloud\drivers\mtd\nand\libnand.a(fsl_elbc_nand.o)
 .got2          0x000000001103f898        0x0 C:\u-boot-2009.11-cloud\drivers\spi\libspi.a(fsl_espi.o)
 .got2          0x000000001103f898        0xc C:\u-boot-2009.11-cloud\cpu\mpc8xxx\lib8xxx.a(cpu.o)
 .got2          0x000000001103f8a4       0x50 C:\u-boot-2009.11-cloud\common\libcommon.a(cmd_bdinfo.o)
 .got2          0x000000001103f8f4        0x8 C:\u-boot-2009.11-cloud\common\libcommon.a(cmd_boot.o)
 .got2          0x000000001103f8fc      0x134 C:\u-boot-2009.11-cloud\common\libcommon.a(cmd_bootm.o)
 .got2          0x000000001103fa30       0x64 C:\u-boot-2009.11-cloud\common\libcommon.a(cmd_elf.o)
 .got2          0x000000001103fa94      0x11c C:\u-boot-2009.11-cloud\common\libcommon.a(cmd_fdt.o)
 .got2          0x000000001103fbb0       0x60 C:\u-boot-2009.11-cloud\common\libcommon.a(cmd_flash.o)
 .got2          0x000000001103fc10       0x14 C:\u-boot-2009.11-cloud\common\libcommon.a(cmd_itest.o)
 .got2          0x000000001103fc24       0x80 C:\u-boot-2009.11-cloud\common\libcommon.a(cmd_load.o)
 .got2          0x000000001103fca4        0x0 C:\u-boot-2009.11-cloud\common\libcommon.a(cmd_mac.o)
 .got2          0x000000001103fca4       0x78 C:\u-boot-2009.11-cloud\common\libcommon.a(cmd_mem.o)
 .got2          0x000000001103fd1c       0x98 C:\u-boot-2009.11-cloud\common\libcommon.a(cmd_mii.o)
 .got2          0x000000001103fdb4        0x0 C:\u-boot-2009.11-cloud\common\libcommon.a(cmd_misc.o)
 .got2          0x000000001103fdb4       0x10 C:\u-boot-2009.11-cloud\common\libcommon.a(cmd_mp.o)
 .got2          0x000000001103fdc4      0x100 C:\u-boot-2009.11-cloud\common\libcommon.a(cmd_nand.o)
 .got2          0x000000001103fec4       0x64 C:\u-boot-2009.11-cloud\common\libcommon.a(cmd_net.o)
 .got2          0x000000001103ff28       0x60 C:\u-boot-2009.11-cloud\common\libcommon.a(cmd_nvedit.o)
 .got2          0x000000001103ff88        0x8 C:\u-boot-2009.11-cloud\common\libcommon.a(cmd_setexpr.o)
 .got2          0x000000001103ff90       0x34 C:\u-boot-2009.11-cloud\common\libcommon.a(cmd_sf.o)
 .got2          0x000000001103ffc4       0x3c C:\u-boot-2009.11-cloud\common\libcommon.a(cmd_source.o)
 .got2          0x0000000011040000       0x64 C:\u-boot-2009.11-cloud\common\libcommon.a(command.o)
 .got2          0x0000000011040064       0x4c C:\u-boot-2009.11-cloud\common\libcommon.a(console.o)
 .got2          0x00000000110400b0       0x18 C:\u-boot-2009.11-cloud\common\libcommon.a(dlmalloc.o)
 .got2          0x00000000110400c8        0xc C:\u-boot-2009.11-cloud\common\libcommon.a(env_common.o)
 .got2          0x00000000110400d4       0x20 C:\u-boot-2009.11-cloud\common\libcommon.a(env_sf.o)
 .got2          0x00000000110400f4       0x3c C:\u-boot-2009.11-cloud\common\libcommon.a(exports.o)
 .got2          0x0000000011040130       0xa4 C:\u-boot-2009.11-cloud\common\libcommon.a(fdt_support.o)
 .got2          0x00000000110401d4       0x2c C:\u-boot-2009.11-cloud\common\libcommon.a(flash.o)
 .got2          0x0000000011040200       0x8c C:\u-boot-2009.11-cloud\common\libcommon.a(hush.o)
 .got2          0x000000001104028c      0x224 C:\u-boot-2009.11-cloud\common\libcommon.a(image.o)
 .got2          0x00000000110404b0       0x50 C:\u-boot-2009.11-cloud\common\libcommon.a(main.o)
 .got2          0x0000000011040500       0x50 C:\u-boot-2009.11-cloud\common\libcommon.a(miiphyutil.o)
 .got2          0x0000000011040550        0x4 C:\u-boot-2009.11-cloud\common\libcommon.a(s_record.o)
 .got2          0x0000000011040554        0xc C:\u-boot-2009.11-cloud\common\libcommon.a(serial.o)
 .got2          0x0000000011040560       0x18 C:\u-boot-2009.11-cloud\common\libcommon.a(stdio.o)
 .got2          0x0000000011040578        0x4 C:\u-boot-2009.11-cloud\libfdt\libfdt.a(fdt.o)
 .got2          0x000000001104057c        0xc C:\u-boot-2009.11-cloud\libfdt\libfdt.a(fdt_ro.o)
 .got2          0x0000000011040588        0x0 C:\u-boot-2009.11-cloud\libfdt\libfdt.a(fdt_rw.o)
 .got2          0x0000000011040588       0x10 C:\u-boot-2009.11-cloud\libfdt\libfdt.a(fdt_strerror.o)
 .got2          0x0000000011040598        0x0 C:\u-boot-2009.11-cloud\libfdt\libfdt.a(fdt_wip.o)
 .got2          0x0000000011040598       0x44 C:\u-boot-2009.11-cloud\board\freescale\p1_p2_rdb\libp1_p2_rdb.a(p1_p2_rdb.o)
 .got2          0x00000000110405dc       0x18 C:\u-boot-2009.11-cloud\board\freescale\p1_p2_rdb\libp1_p2_rdb.a(ddr.o)
 .got2          0x00000000110405f4        0x0 C:\u-boot-2009.11-cloud\board\freescale\p1_p2_rdb\libp1_p2_rdb.a(law.o)
 .got2          0x00000000110405f4        0x0 C:\u-boot-2009.11-cloud\board\freescale\p1_p2_rdb\libp1_p2_rdb.a(tlb.o)
 .got2          0x00000000110405f4        0x4 C:\u-boot-2009.11-cloud\lib_generic\libgeneric.a(crc32.o)
 .got2          0x00000000110405f8        0x0 C:\u-boot-2009.11-cloud\lib_generic\libgeneric.a(ctype.o)
 .got2          0x00000000110405f8       0x2c C:\u-boot-2009.11-cloud\lib_generic\libgeneric.a(display_options.o)
 .got2          0x0000000011040624       0x1c C:\u-boot-2009.11-cloud\lib_generic\libgeneric.a(gunzip.o)
 .got2          0x0000000011040640        0x4 C:\u-boot-2009.11-cloud\lib_generic\libgeneric.a(lmb.o)
 .got2          0x0000000011040644        0x0 C:\u-boot-2009.11-cloud\lib_generic\libgeneric.a(md5.o)
 .got2          0x0000000011040644        0x4 C:\u-boot-2009.11-cloud\lib_generic\libgeneric.a(sha1.o)
 .got2          0x0000000011040648        0x4 C:\u-boot-2009.11-cloud\lib_generic\libgeneric.a(string.o)
 .got2          0x000000001104064c        0x8 C:\u-boot-2009.11-cloud\lib_generic\libgeneric.a(strmhz.o)
 .got2          0x0000000011040654       0x14 C:\u-boot-2009.11-cloud\lib_generic\libgeneric.a(vsprintf.o)
 .got2          0x0000000011040668       0x54 C:\u-boot-2009.11-cloud\lib_generic\libgeneric.a(zlib.o)
 .got2          0x00000000110406bc       0x68 C:\u-boot-2009.11-cloud\board\freescale\common\libfreescale.a(sys_eeprom.o)
 .got2          0x0000000011040724        0x8 C:\u-boot-2009.11-cloud\cpu\mpc85xx\libmpc85xx.a(ddr-gen3.o)
 .got2          0x000000001104072c      0x120 C:\u-boot-2009.11-cloud\cpu\mpc85xx\libmpc85xx.a(fdt.o)
 .got2          0x000000001104084c       0x54 C:\u-boot-2009.11-cloud\cpu\mpc85xx\libmpc85xx.a(cpu.o)
 .got2          0x00000000110408a0        0x0 C:\u-boot-2009.11-cloud\cpu\mpc85xx\libmpc85xx.a(interrupts.o)
 .got2          0x00000000110408a0       0x20 C:\u-boot-2009.11-cloud\cpu\mpc85xx\libmpc85xx.a(speed.o)
 .got2          0x00000000110408c0       0x1c C:\u-boot-2009.11-cloud\lib_ppc\libppc.a(bootm.o)
 .got2          0x00000000110408dc        0x0 C:\u-boot-2009.11-cloud\lib_ppc\libppc.a(cache.o)
 .got2          0x00000000110408dc       0x44 C:\u-boot-2009.11-cloud\drivers\mtd\nand\libnand.a(nand_util.o)
 .got2          0x0000000011040920        0x0 C:\u-boot-2009.11-cloud\drivers\mtd\spi\libspi_flash.a(spi_flash.o)
 .got2          0x0000000011040920       0x14 C:\u-boot-2009.11-cloud\drivers\mtd\spi\libspi_flash.a(spansion.o)
 .got2          0x0000000011040934       0xa0 C:\u-boot-2009.11-cloud\drivers\net\libnet.a(tsec.o)
 .got2          0x00000000110409d4        0x0 C:\u-boot-2009.11-cloud\drivers\net\libnet.a(vsc7385.o)
 .got2          0x00000000110409d4        0xc C:\u-boot-2009.11-cloud\cpu\mpc8xxx\lib8xxx.a(fdt.o)
 .got2          0x00000000110409e0        0x8 C:\u-boot-2009.11-cloud\drivers\rtc\librtc.a(date.o)
 .got2          0x00000000110409e8       0x10 C:\u-boot-2009.11-cloud\drivers\rtc\librtc.a(ds1337.o)
 .got2          0x00000000110409f8        0x4 C:\u-boot-2009.11-cloud\drivers\serial\libserial.a(serial.o)
 .got2          0x00000000110409fc        0x0 C:\u-boot-2009.11-cloud\drivers\serial\libserial.a(ns16550.o)
 .got2          0x00000000110409fc        0x0 C:\u-boot-2009.11-cloud\lib_generic\libgeneric.a(div64.o)
 .got2          0x00000000110409fc        0x0 C:\Cross_Tools\4.3.2\libgcc.a(_lshrdi3.o)
 .got2          0x00000000110409fc        0x0 C:\Cross_Tools\4.3.2\libgcc.a(_ashldi3.o)
 .got2          0x00000000110409fc        0x0 C:\Cross_Tools\4.3.2\libgcc.a(_ashrdi3.o)
                0x00000000110409fc                _FIXUP_TABLE_ = .
 *(.fixup)
 .fixup         0x00000000110409fc       0x38 C:\u-boot-2009.11-cloud\lib_ppc\libppc.a(board.o)
 .fixup         0x0000000011040a34       0x1c C:\u-boot-2009.11-cloud\drivers\mtd\nand\libnand.a(nand_bbt.o)
 .fixup         0x0000000011040a50       0xdc C:\u-boot-2009.11-cloud\drivers\mtd\nand\libnand.a(nand_ids.o)
 .fixup         0x0000000011040b2c        0xc C:\u-boot-2009.11-cloud\drivers\mtd\nand\libnand.a(fsl_elbc_nand.o)
 .fixup         0x0000000011040b38       0x10 C:\u-boot-2009.11-cloud\common\libcommon.a(cmd_bdinfo.o)
 .fixup         0x0000000011040b48       0x20 C:\u-boot-2009.11-cloud\common\libcommon.a(cmd_boot.o)
 .fixup         0x0000000011040b68       0xc4 C:\u-boot-2009.11-cloud\common\libcommon.a(cmd_bootm.o)
 .fixup         0x0000000011040c2c       0x20 C:\u-boot-2009.11-cloud\common\libcommon.a(cmd_elf.o)
 .fixup         0x0000000011040c4c       0x10 C:\u-boot-2009.11-cloud\common\libcommon.a(cmd_fdt.o)
 .fixup         0x0000000011040c5c       0x30 C:\u-boot-2009.11-cloud\common\libcommon.a(cmd_flash.o)
 .fixup         0x0000000011040c8c       0x44 C:\u-boot-2009.11-cloud\common\libcommon.a(cmd_itest.o)
 .fixup         0x0000000011040cd0       0x30 C:\u-boot-2009.11-cloud\common\libcommon.a(cmd_load.o)
 .fixup         0x0000000011040d00       0x10 C:\u-boot-2009.11-cloud\common\libcommon.a(cmd_mac.o)
 .fixup         0x0000000011040d10       0xa0 C:\u-boot-2009.11-cloud\common\libcommon.a(cmd_mem.o)
 .fixup         0x0000000011040db0      0x118 C:\u-boot-2009.11-cloud\common\libcommon.a(cmd_mii.o)
 .fixup         0x0000000011040ec8       0x10 C:\u-boot-2009.11-cloud\common\libcommon.a(cmd_misc.o)
 .fixup         0x0000000011040ed8       0x10 C:\u-boot-2009.11-cloud\common\libcommon.a(cmd_mp.o)
 .fixup         0x0000000011040ee8       0x20 C:\u-boot-2009.11-cloud\common\libcommon.a(cmd_nand.o)
 .fixup         0x0000000011040f08       0x50 C:\u-boot-2009.11-cloud\common\libcommon.a(cmd_net.o)
 .fixup         0x0000000011040f58       0x50 C:\u-boot-2009.11-cloud\common\libcommon.a(cmd_nvedit.o)
 .fixup         0x0000000011040fa8       0x10 C:\u-boot-2009.11-cloud\common\libcommon.a(cmd_setexpr.o)
 .fixup         0x0000000011040fb8       0x10 C:\u-boot-2009.11-cloud\common\libcommon.a(cmd_sf.o)
 .fixup         0x0000000011040fc8       0x10 C:\u-boot-2009.11-cloud\common\libcommon.a(cmd_source.o)
 .fixup         0x0000000011040fd8       0x60 C:\u-boot-2009.11-cloud\common\libcommon.a(command.o)
 .fixup         0x0000000011041038      0x400 C:\u-boot-2009.11-cloud\common\libcommon.a(dlmalloc.o)
 .fixup         0x0000000011041438        0x4 C:\u-boot-2009.11-cloud\common\libcommon.a(env_sf.o)
 .fixup         0x000000001104143c       0x3c C:\u-boot-2009.11-cloud\common\libcommon.a(hush.o)
 .fixup         0x0000000011041478      0x154 C:\u-boot-2009.11-cloud\common\libcommon.a(image.o)
 .fixup         0x00000000110415cc        0xc C:\u-boot-2009.11-cloud\common\libcommon.a(stdio.o)
 .fixup         0x00000000110415d8       0x2c C:\u-boot-2009.11-cloud\libfdt\libfdt.a(fdt_strerror.o)
 .fixup         0x0000000011041604       0x28 C:\u-boot-2009.11-cloud\lib_generic\libgeneric.a(zlib.o)
 .fixup         0x000000001104162c       0x10 C:\u-boot-2009.11-cloud\cpu\mpc85xx\libmpc85xx.a(speed.o)
 .fixup         0x000000001104163c       0x18 C:\u-boot-2009.11-cloud\drivers\mtd\spi\libspi_flash.a(spansion.o)
 .fixup         0x0000000011041654      0x2b8 C:\u-boot-2009.11-cloud\drivers\net\libnet.a(tsec.o)
 .fixup         0x000000001104190c       0x60 C:\u-boot-2009.11-cloud\drivers\serial\libserial.a(serial.o)
                0x000000000000063f                __got2_entries = ((_FIXUP_TABLE_ - _GOT2_TABLE_) >> 0x2)
                0x00000000000003dc                __fixup_entries = ((. - _FIXUP_TABLE_) >> 0x2)

.data           0x000000001104196c     0x1ee8
 *(.data)
 .data          0x000000001104196c        0x0 start.o
 .data          0x000000001104196c        0x0 C:\u-boot-2009.11-cloud\cpu\mpc85xx\start.o
 .data          0x000000001104196c        0x0 C:\u-boot-2009.11-cloud\cpu\mpc85xx\resetvec.o
 .data          0x000000001104196c        0x0 C:\u-boot-2009.11-cloud\cpu\mpc85xx\libmpc85xx.a(cpu_init.o)
 .data          0x000000001104196c        0x0 C:\u-boot-2009.11-cloud\cpu\mpc85xx\libmpc85xx.a(cpu_init_early.o)
 .data          0x000000001104196c        0x0 C:\u-boot-2009.11-cloud\cpu\mpc85xx\libmpc85xx.a(tlb.o)
 .data          0x000000001104196c        0x0 C:\u-boot-2009.11-cloud\cpu\mpc85xx\libmpc85xx.a(traps.o)
 .data          0x000000001104196c        0x0 C:\u-boot-2009.11-cloud\cpu\mpc85xx\libmpc85xx.a(mp.o)
 .data          0x000000001104196c        0x0 C:\u-boot-2009.11-cloud\cpu\mpc85xx\libmpc85xx.a(release.o)
 .data          0x000000001104196c        0x0 C:\u-boot-2009.11-cloud\lib_ppc\libppc.a(ppcstring.o)
 .data          0x000000001104196c        0x0 C:\u-boot-2009.11-cloud\lib_ppc\libppc.a(board.o)
 .data          0x000000001104196c        0x0 C:\u-boot-2009.11-cloud\lib_ppc\libppc.a(extable.o)
 .data          0x000000001104196c        0x0 C:\u-boot-2009.11-cloud\lib_ppc\libppc.a(interrupts.o)
 .data          0x000000001104196c        0x0 C:\u-boot-2009.11-cloud\lib_ppc\libppc.a(time.o)
 .data          0x000000001104196c        0x0 C:\u-boot-2009.11-cloud\lib_ppc\libppc.a(ticks.o)
 .data          0x000000001104196c        0x0 C:\u-boot-2009.11-cloud\net\libnet.a(eth.o)
 .data          0x000000001104196c        0x0 C:\u-boot-2009.11-cloud\net\libnet.a(net.o)
 .data          0x000000001104196c        0x4 C:\u-boot-2009.11-cloud\net\libnet.a(nfs.o)
 .data          0x0000000011041970        0x0 C:\u-boot-2009.11-cloud\net\libnet.a(rarp.o)
 .data          0x0000000011041970        0xe C:\u-boot-2009.11-cloud\net\libnet.a(tftp.o)
 .data          0x000000001104197e        0x0 C:\u-boot-2009.11-cloud\net\libnet.a(bootp.o)
 *fill*         0x000000001104197e        0x2 00
 .data          0x0000000011041980        0xc C:\u-boot-2009.11-cloud\drivers\i2c\libi2c.a(fsl_i2c.o)
 .data          0x000000001104198c        0x0 C:\u-boot-2009.11-cloud\drivers\misc\libmisc.a(fsl_law.o)
 .data          0x000000001104198c        0x4 C:\u-boot-2009.11-cloud\drivers\mtd\libmtd.a(cfi_flash.o)
 .data          0x0000000011041990        0x0 C:\u-boot-2009.11-cloud\drivers\mtd\nand\libnand.a(nand.o)
 .data          0x0000000011041990      0x520 C:\u-boot-2009.11-cloud\drivers\mtd\nand\libnand.a(nand_base.o)
 .data          0x0000000011041eb0       0x12 C:\u-boot-2009.11-cloud\drivers\mtd\nand\libnand.a(nand_bbt.o)
 .data          0x0000000011041ec2        0x0 C:\u-boot-2009.11-cloud\drivers\mtd\nand\libnand.a(nand_ecc.o)
 .data          0x0000000011041ec2        0x0 C:\u-boot-2009.11-cloud\drivers\mtd\nand\libnand.a(nand_ids.o)
 *fill*         0x0000000011041ec2        0x2 00
 .data          0x0000000011041ec4      0x52c C:\u-boot-2009.11-cloud\drivers\mtd\nand\libnand.a(fsl_elbc_nand.o)
 .data          0x00000000110423f0        0x0 C:\u-boot-2009.11-cloud\drivers\spi\libspi.a(fsl_espi.o)
 .data          0x00000000110423f0      0x4b0 C:\u-boot-2009.11-cloud\cpu\mpc8xxx\lib8xxx.a(cpu.o)
                0x00000000110423f0                cpu_type_list
                0x0000000011042888                cpu_type_unknown
 .data          0x00000000110428a0        0x0 C:\u-boot-2009.11-cloud\common\libcommon.a(cmd_bdinfo.o)
 .data          0x00000000110428a0        0x0 C:\u-boot-2009.11-cloud\common\libcommon.a(cmd_boot.o)
 .data          0x00000000110428a0        0x0 C:\u-boot-2009.11-cloud\common\libcommon.a(cmd_bootm.o)
 .data          0x00000000110428a0        0x0 C:\u-boot-2009.11-cloud\common\libcommon.a(cmd_elf.o)
 .data          0x00000000110428a0       0x25 C:\u-boot-2009.11-cloud\common\libcommon.a(cmd_fdt.o)
 .data          0x00000000110428c5        0x0 C:\u-boot-2009.11-cloud\common\libcommon.a(cmd_flash.o)
 .data          0x00000000110428c5        0x0 C:\u-boot-2009.11-cloud\common\libcommon.a(cmd_itest.o)
 *fill*         0x00000000110428c5        0x3 00
 .data          0x00000000110428c8        0x4 C:\u-boot-2009.11-cloud\common\libcommon.a(cmd_load.o)
 .data          0x00000000110428cc        0x0 C:\u-boot-2009.11-cloud\common\libcommon.a(cmd_mac.o)
 .data          0x00000000110428cc        0x0 C:\u-boot-2009.11-cloud\common\libcommon.a(cmd_mem.o)
 .data          0x00000000110428cc        0x0 C:\u-boot-2009.11-cloud\common\libcommon.a(cmd_mii.o)
 .data          0x00000000110428cc        0x0 C:\u-boot-2009.11-cloud\common\libcommon.a(cmd_misc.o)
 .data          0x00000000110428cc        0x0 C:\u-boot-2009.11-cloud\common\libcommon.a(cmd_mp.o)
 .data          0x00000000110428cc        0x0 C:\u-boot-2009.11-cloud\common\libcommon.a(cmd_nand.o)
 .data          0x00000000110428cc        0x0 C:\u-boot-2009.11-cloud\common\libcommon.a(cmd_net.o)
 .data          0x00000000110428cc        0x4 C:\u-boot-2009.11-cloud\common\libcommon.a(cmd_nvedit.o)
 .data          0x00000000110428d0        0x0 C:\u-boot-2009.11-cloud\common\libcommon.a(cmd_setexpr.o)
 .data          0x00000000110428d0        0x0 C:\u-boot-2009.11-cloud\common\libcommon.a(cmd_sf.o)
 .data          0x00000000110428d0        0x0 C:\u-boot-2009.11-cloud\common\libcommon.a(cmd_source.o)
 .data          0x00000000110428d0        0x0 C:\u-boot-2009.11-cloud\common\libcommon.a(command.o)
 .data          0x00000000110428d0        0x0 C:\u-boot-2009.11-cloud\common\libcommon.a(console.o)
 .data          0x00000000110428d0        0xc C:\u-boot-2009.11-cloud\common\libcommon.a(dlmalloc.o)
 .data          0x00000000110428dc      0x9e1 C:\u-boot-2009.11-cloud\common\libcommon.a(env_common.o)
                0x00000000110428dc                default_environment
 .data          0x00000000110432bd        0x0 C:\u-boot-2009.11-cloud\common\libcommon.a(env_sf.o)
 .data          0x00000000110432bd        0x0 C:\u-boot-2009.11-cloud\common\libcommon.a(exports.o)
 .data          0x00000000110432bd        0x0 C:\u-boot-2009.11-cloud\common\libcommon.a(fdt_support.o)
 .data          0x00000000110432bd        0x0 C:\u-boot-2009.11-cloud\common\libcommon.a(flash.o)
 .data          0x00000000110432bd        0x0 C:\u-boot-2009.11-cloud\common\libcommon.a(hush.o)
 .data          0x00000000110432bd        0x0 C:\u-boot-2009.11-cloud\common\libcommon.a(image.o)
 *fill*         0x00000000110432bd        0x3 00
 .data          0x00000000110432c0       0x14 C:\u-boot-2009.11-cloud\common\libcommon.a(main.o)
 .data          0x00000000110432d4        0x0 C:\u-boot-2009.11-cloud\common\libcommon.a(miiphyutil.o)
 .data          0x00000000110432d4        0x0 C:\u-boot-2009.11-cloud\common\libcommon.a(s_record.o)
 .data          0x00000000110432d4        0x0 C:\u-boot-2009.11-cloud\common\libcommon.a(serial.o)
 .data          0x00000000110432d4        0x0 C:\u-boot-2009.11-cloud\common\libcommon.a(stdio.o)
 .data          0x00000000110432d4        0x0 C:\u-boot-2009.11-cloud\libfdt\libfdt.a(fdt.o)
 .data          0x00000000110432d4        0x0 C:\u-boot-2009.11-cloud\libfdt\libfdt.a(fdt_ro.o)
 .data          0x00000000110432d4        0x0 C:\u-boot-2009.11-cloud\libfdt\libfdt.a(fdt_rw.o)
 .data          0x00000000110432d4        0x0 C:\u-boot-2009.11-cloud\libfdt\libfdt.a(fdt_strerror.o)
 .data          0x00000000110432d4        0x0 C:\u-boot-2009.11-cloud\libfdt\libfdt.a(fdt_wip.o)
 .data          0x00000000110432d4        0x0 C:\u-boot-2009.11-cloud\board\freescale\p1_p2_rdb\libp1_p2_rdb.a(p1_p2_rdb.o)
 .data          0x00000000110432d4      0x180 C:\u-boot-2009.11-cloud\board\freescale\p1_p2_rdb\libp1_p2_rdb.a(ddr.o)
                0x00000000110432d4                ddr_cfg_regs_400
                0x0000000011043334                ddr_cfg_regs_533
                0x0000000011043394                ddr_cfg_regs_667
                0x00000000110433f4                ddr_cfg_regs_800
 .data          0x0000000011043454       0x30 C:\u-boot-2009.11-cloud\board\freescale\p1_p2_rdb\libp1_p2_rdb.a(law.o)
                0x0000000011043454                law_table
 .data          0x0000000011043484       0xf0 C:\u-boot-2009.11-cloud\board\freescale\p1_p2_rdb\libp1_p2_rdb.a(tlb.o)
                0x0000000011043484                tlb_table
 .data          0x0000000011043574        0x0 C:\u-boot-2009.11-cloud\lib_generic\libgeneric.a(crc32.o)
 .data          0x0000000011043574      0x100 C:\u-boot-2009.11-cloud\lib_generic\libgeneric.a(ctype.o)
                0x0000000011043574                _ctype
 .data          0x0000000011043674        0x0 C:\u-boot-2009.11-cloud\lib_generic\libgeneric.a(display_options.o)
 .data          0x0000000011043674        0x0 C:\u-boot-2009.11-cloud\lib_generic\libgeneric.a(gunzip.o)
 .data          0x0000000011043674        0x0 C:\u-boot-2009.11-cloud\lib_generic\libgeneric.a(lmb.o)
 .data          0x0000000011043674        0x0 C:\u-boot-2009.11-cloud\lib_generic\libgeneric.a(md5.o)
 .data          0x0000000011043674        0x0 C:\u-boot-2009.11-cloud\lib_generic\libgeneric.a(sha1.o)
 .data          0x0000000011043674        0x0 C:\u-boot-2009.11-cloud\lib_generic\libgeneric.a(string.o)
 .data          0x0000000011043674        0x0 C:\u-boot-2009.11-cloud\lib_generic\libgeneric.a(strmhz.o)
 .data          0x0000000011043674        0x0 C:\u-boot-2009.11-cloud\lib_generic\libgeneric.a(vsprintf.o)
 .data          0x0000000011043674        0x0 C:\u-boot-2009.11-cloud\lib_generic\libgeneric.a(zlib.o)
 .data          0x0000000011043674        0x0 C:\u-boot-2009.11-cloud\board\freescale\common\libfreescale.a(sys_eeprom.o)
 .data          0x0000000011043674        0x0 C:\u-boot-2009.11-cloud\cpu\mpc85xx\libmpc85xx.a(ddr-gen3.o)
 .data          0x0000000011043674        0x0 C:\u-boot-2009.11-cloud\cpu\mpc85xx\libmpc85xx.a(fdt.o)
 .data          0x0000000011043674        0x0 C:\u-boot-2009.11-cloud\cpu\mpc85xx\libmpc85xx.a(cpu.o)
 .data          0x0000000011043674        0x0 C:\u-boot-2009.11-cloud\cpu\mpc85xx\libmpc85xx.a(interrupts.o)
 .data          0x0000000011043674        0x0 C:\u-boot-2009.11-cloud\cpu\mpc85xx\libmpc85xx.a(speed.o)
 .data          0x0000000011043674        0x0 C:\u-boot-2009.11-cloud\lib_ppc\libppc.a(bootm.o)
 .data          0x0000000011043674        0x0 C:\u-boot-2009.11-cloud\lib_ppc\libppc.a(cache.o)
 .data          0x0000000011043674        0x0 C:\u-boot-2009.11-cloud\drivers\mtd\nand\libnand.a(nand_util.o)
 .data          0x0000000011043674        0x0 C:\u-boot-2009.11-cloud\drivers\mtd\spi\libspi_flash.a(spi_flash.o)
 .data          0x0000000011043674        0x0 C:\u-boot-2009.11-cloud\drivers\mtd\spi\libspi_flash.a(spansion.o)
 .data          0x0000000011043674      0x180 C:\u-boot-2009.11-cloud\drivers\net\libnet.a(tsec.o)
 .data          0x00000000110437f4        0x0 C:\u-boot-2009.11-cloud\drivers\net\libnet.a(vsc7385.o)
 .data          0x00000000110437f4        0x0 C:\u-boot-2009.11-cloud\cpu\mpc8xxx\lib8xxx.a(fdt.o)
 .data          0x00000000110437f4       0x30 C:\u-boot-2009.11-cloud\drivers\rtc\librtc.a(date.o)
 .data          0x0000000011043824        0x0 C:\u-boot-2009.11-cloud\drivers\rtc\librtc.a(ds1337.o)
 .data          0x0000000011043824        0x0 C:\u-boot-2009.11-cloud\drivers\serial\libserial.a(serial.o)
 .data          0x0000000011043824        0x0 C:\u-boot-2009.11-cloud\drivers\serial\libserial.a(ns16550.o)
 .data          0x0000000011043824        0x0 C:\u-boot-2009.11-cloud\lib_generic\libgeneric.a(div64.o)
 .data          0x0000000011043824        0x0 C:\Cross_Tools\4.3.2\libgcc.a(_lshrdi3.o)
 .data          0x0000000011043824        0x0 C:\Cross_Tools\4.3.2\libgcc.a(_ashldi3.o)
 .data          0x0000000011043824        0x0 C:\Cross_Tools\4.3.2\libgcc.a(_ashrdi3.o)
 *(.data1)
 *(.sdata)
 .sdata         0x0000000011043824        0x4 C:\u-boot-2009.11-cloud\lib_ppc\libppc.a(extable.o)
                0x0000000011043824                ex_tab_message
 .sdata         0x0000000011043828        0xa C:\u-boot-2009.11-cloud\net\libnet.a(net.o)
                0x0000000011043828                NetBcastAddr
                0x000000001104382e                NetOurVLAN
                0x0000000011043830                NetOurNativeVLAN
 *fill*         0x0000000011043832        0x2 00
 .sdata         0x0000000011043834        0x8 C:\u-boot-2009.11-cloud\net\libnet.a(tftp.o)
                0x0000000011043834                TftpRRQTimeoutMSecs
                0x0000000011043838                TftpRRQTimeoutCountMax
 .sdata         0x000000001104383c        0x4 C:\u-boot-2009.11-cloud\drivers\mtd\nand\libnand.a(nand.o)
                0x000000001104383c                nand_curr_device
 .sdata         0x0000000011043840        0x4 C:\u-boot-2009.11-cloud\common\libcommon.a(cmd_bootm.o)
                0x0000000011043840                load_addr
 .sdata         0x0000000011043844        0x4 C:\u-boot-2009.11-cloud\common\libcommon.a(cmd_mem.o)
                0x0000000011043844                dp_last_length
 .sdata         0x0000000011043848        0x4 C:\u-boot-2009.11-cloud\common\libcommon.a(env_sf.o)
                0x0000000011043848                env_name_spec
 .sdata         0x000000001104384c        0x4 C:\u-boot-2009.11-cloud\board\freescale\p1_p2_rdb\libp1_p2_rdb.a(law.o)
                0x000000001104384c                num_law_entries
 .sdata         0x0000000011043850        0x4 C:\u-boot-2009.11-cloud\board\freescale\p1_p2_rdb\libp1_p2_rdb.a(tlb.o)
                0x0000000011043850                num_tlb_entries
 *(.sdata2)
 *(.dynamic)
                0x0000000011043854                _edata = .
                0x0000000011043854                PROVIDE (edata, .)

.data.rel.ro.local
                0x0000000011043854       0xc0
 .data.rel.ro.local
                0x0000000011043854        0x4 C:\u-boot-2009.11-cloud\lib_ppc\libppc.a(board.o)
 .data.rel.ro.local
                0x0000000011043858       0x34 C:\u-boot-2009.11-cloud\libfdt\libfdt.a(fdt_strerror.o)
 .data.rel.ro.local
                0x000000001104388c       0x28 C:\u-boot-2009.11-cloud\lib_generic\libgeneric.a(zlib.o)
                0x000000001104388c                z_errmsg
 .data.rel.ro.local
                0x00000000110438b4       0x60 C:\u-boot-2009.11-cloud\drivers\mtd\spi\libspi_flash.a(spansion.o)

.data.rel       0x0000000011043914      0xa24
 .data.rel      0x0000000011043914       0x38 C:\u-boot-2009.11-cloud\lib_ppc\libppc.a(board.o)
                0x0000000011043914                init_sequence
 .data.rel      0x000000001104394c       0x30 C:\u-boot-2009.11-cloud\common\libcommon.a(cmd_mii.o)
                0x000000001104394c                desc_and_len_tbl
 .data.rel      0x000000001104397c      0x8ec C:\u-boot-2009.11-cloud\drivers\net\libnet.a(tsec.o)
                0x000000001104397c                phy_info
 .data.rel      0x0000000011044268       0xd0 C:\u-boot-2009.11-cloud\drivers\serial\libserial.a(serial.o)
                0x0000000011044268                eserial1_device
                0x000000001104429c                eserial2_device
                0x00000000110442d0                eserial3_device
                0x0000000011044304                eserial4_device

.data.rel.local
                0x0000000011044338     0x1360
 .data.rel.local
                0x0000000011044338       0xfc C:\u-boot-2009.11-cloud\drivers\mtd\nand\libnand.a(nand_bbt.o)
 .data.rel.local
                0x0000000011044434      0x4a0 C:\u-boot-2009.11-cloud\drivers\mtd\nand\libnand.a(nand_ids.o)
                0x0000000011044434                nand_flash_ids
                0x0000000011044884                nand_manuf_ids
 .data.rel.local
                0x00000000110448d4       0x6c C:\u-boot-2009.11-cloud\drivers\mtd\nand\libnand.a(fsl_elbc_nand.o)
 .data.rel.local
                0x0000000011044940       0xc0 C:\u-boot-2009.11-cloud\common\libcommon.a(cmd_bootm.o)
                0x0000000011044940                cmd_bootm_sub
 .data.rel.local
                0x0000000011044a00       0x68 C:\u-boot-2009.11-cloud\common\libcommon.a(cmd_itest.o)
                0x0000000011044a00                op_table
 .data.rel.local
                0x0000000011044a68      0x2b8 C:\u-boot-2009.11-cloud\common\libcommon.a(cmd_mii.o)
                0x0000000011044a68                reg_0_5_desc_tbl
                0x0000000011044a98                reg_0_desc_tbl
                0x0000000011044b10                reg_1_desc_tbl
                0x0000000011044bd0                reg_2_desc_tbl
                0x0000000011044bdc                reg_3_desc_tbl
                0x0000000011044c00                reg_4_desc_tbl
                0x0000000011044c90                reg_5_desc_tbl
 .data.rel.local
                0x0000000011044d20      0x408 C:\u-boot-2009.11-cloud\common\libcommon.a(dlmalloc.o)
 .data.rel.local
                0x0000000011045128       0x84 C:\u-boot-2009.11-cloud\common\libcommon.a(hush.o)
 .data.rel.local
                0x00000000110451ac      0x210 C:\u-boot-2009.11-cloud\common\libcommon.a(image.o)
 .data.rel.local
                0x00000000110453bc        0xc C:\u-boot-2009.11-cloud\common\libcommon.a(stdio.o)
                0x00000000110453bc                stdio_names
 .data.rel.local
                0x00000000110453c8      0x2d0 C:\u-boot-2009.11-cloud\drivers\net\libnet.a(tsec.o)
                0x0000000011045410                phy_info_M88E1149S
                0x0000000011045428                phy_info_BCM5461S
                0x0000000011045440                phy_info_BCM5464S
                0x0000000011045458                phy_info_BCM5482S
                0x0000000011045470                phy_info_M88E1011S
                0x0000000011045488                phy_info_M88E1111S
                0x00000000110454a0                phy_info_M88E1118
                0x00000000110454b8                phy_info_M88E1121R
                0x00000000110454d0                phy_info_cis8204
                0x00000000110454e8                phy_info_cis8201
                0x0000000011045500                phy_info_VSC8211
                0x0000000011045518                phy_info_VSC8244
                0x0000000011045530                phy_info_VSC8641
                0x0000000011045548                phy_info_VSC8221
                0x0000000011045560                phy_info_VSC8601
                0x0000000011045578                phy_info_dm9161
                0x0000000011045590                phy_info_generic
                0x00000000110455a8                phy_info_dp83865
                0x00000000110455c0                phy_info_rtl8211b

.data.rel.ro    0x0000000011045698       0x4c
 .data.rel.ro   0x0000000011045698       0x4c C:\u-boot-2009.11-cloud\common\libcommon.a(cmd_bootm.o)
                0x00000000110456e4                . = .
                0x00000000110456e4                __u_boot_cmd_start = .

.u_boot_cmd     0x00000000110456e4      0x528
 *(.u_boot_cmd)
 .u_boot_cmd    0x00000000110456e4       0x18 C:\u-boot-2009.11-cloud\common\libcommon.a(cmd_bdinfo.o)
                0x00000000110456e4                __u_boot_cmd_bdinfo
 .u_boot_cmd    0x00000000110456fc       0x30 C:\u-boot-2009.11-cloud\common\libcommon.a(cmd_boot.o)
                0x00000000110456fc                __u_boot_cmd_go
                0x0000000011045714                __u_boot_cmd_reset
 .u_boot_cmd    0x000000001104572c       0x78 C:\u-boot-2009.11-cloud\common\libcommon.a(cmd_bootm.o)
                0x000000001104572c                __u_boot_cmd_bootm
                0x0000000011045744                __u_boot_cmd_boot
                0x000000001104575c                __u_boot_cmd_bootd
                0x0000000011045774                __u_boot_cmd_iminfo
                0x000000001104578c                __u_boot_cmd_imls
 .u_boot_cmd    0x00000000110457a4       0x30 C:\u-boot-2009.11-cloud\common\libcommon.a(cmd_elf.o)
                0x00000000110457a4                __u_boot_cmd_bootelf
                0x00000000110457bc                __u_boot_cmd_bootvx
 .u_boot_cmd    0x00000000110457d4       0x18 C:\u-boot-2009.11-cloud\common\libcommon.a(cmd_fdt.o)
                0x00000000110457d4                __u_boot_cmd_fdt
 .u_boot_cmd    0x00000000110457ec       0x48 C:\u-boot-2009.11-cloud\common\libcommon.a(cmd_flash.o)
                0x00000000110457ec                __u_boot_cmd_flinfo
                0x0000000011045804                __u_boot_cmd_erase
                0x000000001104581c                __u_boot_cmd_protect
 .u_boot_cmd    0x0000000011045834       0x18 C:\u-boot-2009.11-cloud\common\libcommon.a(cmd_itest.o)
                0x0000000011045834                __u_boot_cmd_itest
 .u_boot_cmd    0x000000001104584c       0x48 C:\u-boot-2009.11-cloud\common\libcommon.a(cmd_load.o)
                0x000000001104584c                __u_boot_cmd_loads
                0x0000000011045864                __u_boot_cmd_loadb
                0x000000001104587c                __u_boot_cmd_loady
 .u_boot_cmd    0x0000000011045894       0x18 C:\u-boot-2009.11-cloud\common\libcommon.a(cmd_mac.o)
                0x0000000011045894                __u_boot_cmd_mac
 .u_boot_cmd    0x00000000110458ac       0xf0 C:\u-boot-2009.11-cloud\common\libcommon.a(cmd_mem.o)
                0x00000000110458ac                __u_boot_cmd_md
                0x00000000110458c4                __u_boot_cmd_mm
                0x00000000110458dc                __u_boot_cmd_nm
                0x00000000110458f4                __u_boot_cmd_mw
                0x000000001104590c                __u_boot_cmd_cp
                0x0000000011045924                __u_boot_cmd_cmp
                0x000000001104593c                __u_boot_cmd_crc32
                0x0000000011045954                __u_boot_cmd_base
                0x000000001104596c                __u_boot_cmd_loop
                0x0000000011045984                __u_boot_cmd_mtest
 .u_boot_cmd    0x000000001104599c       0x18 C:\u-boot-2009.11-cloud\common\libcommon.a(cmd_mii.o)
                0x000000001104599c                __u_boot_cmd_mii
 .u_boot_cmd    0x00000000110459b4       0x18 C:\u-boot-2009.11-cloud\common\libcommon.a(cmd_misc.o)
                0x00000000110459b4                __u_boot_cmd_sleep
 .u_boot_cmd    0x00000000110459cc       0x18 C:\u-boot-2009.11-cloud\common\libcommon.a(cmd_mp.o)
                0x00000000110459cc                __u_boot_cmd_cpu
 .u_boot_cmd    0x00000000110459e4       0x30 C:\u-boot-2009.11-cloud\common\libcommon.a(cmd_nand.o)
                0x00000000110459e4                __u_boot_cmd_nand
                0x00000000110459fc                __u_boot_cmd_nboot
 .u_boot_cmd    0x0000000011045a14       0x78 C:\u-boot-2009.11-cloud\common\libcommon.a(cmd_net.o)
                0x0000000011045a14                __u_boot_cmd_bootp
                0x0000000011045a2c                __u_boot_cmd_tftpboot
                0x0000000011045a44                __u_boot_cmd_rarpboot
                0x0000000011045a5c                __u_boot_cmd_nfs
                0x0000000011045a74                __u_boot_cmd_ping
 .u_boot_cmd    0x0000000011045a8c       0x78 C:\u-boot-2009.11-cloud\common\libcommon.a(cmd_nvedit.o)
                0x0000000011045a8c                __u_boot_cmd_saveenv
                0x0000000011045aa4                __u_boot_cmd_editenv
                0x0000000011045abc                __u_boot_cmd_printenv
                0x0000000011045ad4                __u_boot_cmd_setenv
                0x0000000011045aec                __u_boot_cmd_run
 .u_boot_cmd    0x0000000011045b04       0x18 C:\u-boot-2009.11-cloud\common\libcommon.a(cmd_setexpr.o)
                0x0000000011045b04                __u_boot_cmd_setexpr
 .u_boot_cmd    0x0000000011045b1c       0x18 C:\u-boot-2009.11-cloud\common\libcommon.a(cmd_sf.o)
                0x0000000011045b1c                __u_boot_cmd_sf
 .u_boot_cmd    0x0000000011045b34       0x18 C:\u-boot-2009.11-cloud\common\libcommon.a(cmd_source.o)
                0x0000000011045b34                __u_boot_cmd_source
 .u_boot_cmd    0x0000000011045b4c       0x90 C:\u-boot-2009.11-cloud\common\libcommon.a(command.o)
                0x0000000011045b4c                __u_boot_cmd_version
                0x0000000011045b64                __u_boot_cmd_echo
                0x0000000011045b7c                __u_boot_cmd_test
                0x0000000011045b94                __u_boot_cmd_exit
                0x0000000011045bac                __u_boot_cmd_help
                0x0000000011045bc4                __u_boot_cmd_question_mark
 .u_boot_cmd    0x0000000011045bdc       0x18 C:\u-boot-2009.11-cloud\common\libcommon.a(hush.o)
                0x0000000011045bdc                __u_boot_cmd_showvar
 .u_boot_cmd    0x0000000011045bf4       0x18 C:\u-boot-2009.11-cloud\cpu\mpc85xx\libmpc85xx.a(speed.o)
                0x0000000011045bf4                __u_boot_cmd_clocks
                0x0000000011045c0c                __u_boot_cmd_end = .
                0x0000000011045c0c                . = .
                0x0000000011045c0c                __start___ex_table = .

__ex_table
 *(__ex_table)
                0x0000000011045c0c                __stop___ex_table = .
                0x0000000011045d00                . = ALIGN (0x100)
                0x0000000011045d00                __init_begin = .

.text.init
 *(.text.init)

.data.init
 *(.data.init)
                0x0000000011045d00                . = ALIGN (0x100)
                0x0000000011045d00                __init_end = .

.bootpg         0x000000001107f000      0x220
 start.o(.bootpg)
 .bootpg        0x000000001107f000      0x220 start.o
                0x000000001107f000                _start_e500

.resetvec       0x000000001107fffc        0x4
 *(.resetvec)
 .resetvec      0x000000001107fffc        0x4 C:\u-boot-2009.11-cloud\cpu\mpc85xx\resetvec.o
                0x0000000011080000                . = 0x11080000
                0x0000000011080000                __bss_start = .

.bss            0x0000000011080000     0x533c
 *(.sbss)
 .sbss          0x0000000000000000        0x0 start.o
 .sbss          0x0000000011080000        0x8 C:\u-boot-2009.11-cloud\cpu\mpc85xx\libmpc85xx.a(traps.o)
                0x0000000011080000                machinecheck_count
                0x0000000011080004                machinecheck_error
 .sbss          0x0000000011080008        0x4 C:\u-boot-2009.11-cloud\lib_ppc\libppc.a(board.o)
                0x0000000011080008                monitor_flash_len
 .sbss          0x000000001108000c       0x6c C:\u-boot-2009.11-cloud\net\libnet.a(net.o)
                0x000000001108000c                NetOurSubnetMask
                0x0000000011080010                NetOurGatewayIP
                0x0000000011080014                NetOurDNSIP
                0x0000000011080018                NetBootFileSize
                0x000000001108001c                NetServerEther
                0x0000000011080024                NetEtherNullAddr
                0x000000001108002c                NetRestartWrap
                0x0000000011080030                NetTxPacket
                0x0000000011080034                NetArpWaitTry
                0x0000000011080038                NetArpWaitPacketMAC
                0x000000001108003c                NetOurEther
                0x0000000011080044                NetOurIP
                0x0000000011080048                NetPingIP
                0x000000001108004c                NetServerIP
                0x0000000011080050                NetArpWaitTxPacketSize
                0x0000000011080054                NetArpWaitReplyIP
                0x0000000011080058                NetArpWaitTxPacket
                0x000000001108005c                NetArpWaitPacketIP
                0x0000000011080060                NetState
                0x0000000011080064                NetIPID
                0x0000000011080068                NetRxPacket
                0x000000001108006c                NetBootFileXferSize
                0x0000000011080070                NetRxPacketLen
                0x0000000011080074                NetArpWaitTimerStart
 .sbss          0x0000000011080078        0x4 C:\u-boot-2009.11-cloud\net\libnet.a(rarp.o)
                0x0000000011080078                RarpTry
 .sbss          0x000000001108007c        0x8 C:\u-boot-2009.11-cloud\net\libnet.a(bootp.o)
                0x000000001108007c                BootpTry
                0x0000000011080080                BootpID
 .sbss          0x0000000011080084        0x4 C:\u-boot-2009.11-cloud\common\libcommon.a(cmd_fdt.o)
                0x0000000011080084                working_fdt
 .sbss          0x0000000011080088       0x18 C:\u-boot-2009.11-cloud\common\libcommon.a(cmd_load.o)
                0x0000000011080088                his_pad_char
                0x000000001108008c                os_data_init
                0x0000000011080090                send_ptr
                0x0000000011080094                os_data_char
                0x0000000011080098                his_eol
                0x0000000011080099                his_quote
                0x000000001108009c                his_pad_count
 .sbss          0x00000000110800a0       0x10 C:\u-boot-2009.11-cloud\common\libcommon.a(cmd_mem.o)
                0x00000000110800a0                dp_last_size
                0x00000000110800a4                dp_last_addr
                0x00000000110800a8                mm_last_size
                0x00000000110800ac                mm_last_addr
 .sbss          0x00000000110800b0       0x18 C:\u-boot-2009.11-cloud\common\libcommon.a(cmd_mii.o)
                0x00000000110800b0                last_reg_hi
                0x00000000110800b4                last_data
                0x00000000110800b8                last_addr_hi
                0x00000000110800bc                last_reg_lo
                0x00000000110800c0                last_op
                0x00000000110800c4                last_addr_lo
 .sbss          0x00000000110800c8        0xc C:\u-boot-2009.11-cloud\common\libcommon.a(dlmalloc.o)
                0x00000000110800c8                mem_malloc_start
                0x00000000110800cc                mem_malloc_end
                0x00000000110800d0                mem_malloc_brk
 .sbss          0x00000000110800d4        0x4 C:\u-boot-2009.11-cloud\common\libcommon.a(env_sf.o)
                0x00000000110800d4                env_ptr
 .sbss          0x00000000110800d8        0x8 C:\u-boot-2009.11-cloud\common\libcommon.a(hush.o)
                0x00000000110800d8                nesting_level
                0x00000000110800dc                last_return_code
 .sbss          0x00000000110800e0        0x4 C:\u-boot-2009.11-cloud\common\libcommon.a(main.o)
                0x00000000110800e0                hist_num
 .sbss          0x00000000110800e4        0x4 C:\u-boot-2009.11-cloud\lib_generic\libgeneric.a(string.o)
                0x00000000110800e4                ___strtok
 *(.scommon)
 *(.dynbss)
 *(.bss)
 .bss           0x00000000110800e8        0x0 start.o
 .bss           0x00000000110800e8        0x0 C:\u-boot-2009.11-cloud\cpu\mpc85xx\start.o
 .bss           0x00000000110800e8        0x0 C:\u-boot-2009.11-cloud\cpu\mpc85xx\resetvec.o
 .bss           0x00000000110800e8        0x0 C:\u-boot-2009.11-cloud\cpu\mpc85xx\libmpc85xx.a(cpu_init.o)
 .bss           0x00000000110800e8        0x0 C:\u-boot-2009.11-cloud\cpu\mpc85xx\libmpc85xx.a(cpu_init_early.o)
 .bss           0x00000000110800e8        0x0 C:\u-boot-2009.11-cloud\cpu\mpc85xx\libmpc85xx.a(tlb.o)
 .bss           0x00000000110800e8        0x0 C:\u-boot-2009.11-cloud\cpu\mpc85xx\libmpc85xx.a(traps.o)
 .bss           0x00000000110800e8        0x0 C:\u-boot-2009.11-cloud\cpu\mpc85xx\libmpc85xx.a(mp.o)
 .bss           0x00000000110800e8        0x0 C:\u-boot-2009.11-cloud\cpu\mpc85xx\libmpc85xx.a(release.o)
 .bss           0x00000000110800e8        0x0 C:\u-boot-2009.11-cloud\lib_ppc\libppc.a(ppcstring.o)
 .bss           0x00000000110800e8        0x0 C:\u-boot-2009.11-cloud\lib_ppc\libppc.a(board.o)
 .bss           0x00000000110800e8        0x0 C:\u-boot-2009.11-cloud\lib_ppc\libppc.a(extable.o)
 .bss           0x00000000110800e8        0x8 C:\u-boot-2009.11-cloud\lib_ppc\libppc.a(interrupts.o)
 .bss           0x00000000110800f0        0x0 C:\u-boot-2009.11-cloud\lib_ppc\libppc.a(time.o)
 .bss           0x00000000110800f0        0x0 C:\u-boot-2009.11-cloud\lib_ppc\libppc.a(ticks.o)
 .bss           0x00000000110800f0       0x14 C:\u-boot-2009.11-cloud\net\libnet.a(eth.o)
 .bss           0x0000000011080104       0xa8 C:\u-boot-2009.11-cloud\net\libnet.a(net.o)
                0x000000001108012c                NetOurNISDomain
                0x000000001108014c                NetOurHostName
                0x000000001108016c                NetOurRootPath
 .bss           0x00000000110801ac      0x8b0 C:\u-boot-2009.11-cloud\net\libnet.a(nfs.o)
 .bss           0x0000000011080a5c        0x0 C:\u-boot-2009.11-cloud\net\libnet.a(rarp.o)
 .bss           0x0000000011080a5c       0xb4 C:\u-boot-2009.11-cloud\net\libnet.a(tftp.o)
 .bss           0x0000000011080b10        0x0 C:\u-boot-2009.11-cloud\net\libnet.a(bootp.o)
 .bss           0x0000000011080b10        0x0 C:\u-boot-2009.11-cloud\drivers\i2c\libi2c.a(fsl_i2c.o)
 .bss           0x0000000011080b10        0x0 C:\u-boot-2009.11-cloud\drivers\misc\libmisc.a(fsl_law.o)
 .bss           0x0000000011080b10        0x4 C:\u-boot-2009.11-cloud\drivers\mtd\libmtd.a(cfi_flash.o)
 .bss           0x0000000011080b14      0x110 C:\u-boot-2009.11-cloud\drivers\mtd\nand\libnand.a(nand.o)
 .bss           0x0000000011080c24        0x0 C:\u-boot-2009.11-cloud\drivers\mtd\nand\libnand.a(nand_base.o)
 .bss           0x0000000011080c24        0x0 C:\u-boot-2009.11-cloud\drivers\mtd\nand\libnand.a(nand_bbt.o)
 .bss           0x0000000011080c24        0x0 C:\u-boot-2009.11-cloud\drivers\mtd\nand\libnand.a(nand_ecc.o)
 .bss           0x0000000011080c24        0x0 C:\u-boot-2009.11-cloud\drivers\mtd\nand\libnand.a(nand_ids.o)
 .bss           0x0000000011080c24        0x4 C:\u-boot-2009.11-cloud\drivers\mtd\nand\libnand.a(fsl_elbc_nand.o)
 .bss           0x0000000011080c28        0x0 C:\u-boot-2009.11-cloud\drivers\spi\libspi.a(fsl_espi.o)
 .bss           0x0000000011080c28        0x0 C:\u-boot-2009.11-cloud\cpu\mpc8xxx\lib8xxx.a(cpu.o)
 .bss           0x0000000011080c28        0x0 C:\u-boot-2009.11-cloud\common\libcommon.a(cmd_bdinfo.o)
 .bss           0x0000000011080c28        0x0 C:\u-boot-2009.11-cloud\common\libcommon.a(cmd_boot.o)
 .bss           0x0000000011080c28      0x158 C:\u-boot-2009.11-cloud\common\libcommon.a(cmd_bootm.o)
 .bss           0x0000000011080d80        0x0 C:\u-boot-2009.11-cloud\common\libcommon.a(cmd_elf.o)
 .bss           0x0000000011080d80      0x400 C:\u-boot-2009.11-cloud\common\libcommon.a(cmd_fdt.o)
 .bss           0x0000000011081180        0x0 C:\u-boot-2009.11-cloud\common\libcommon.a(cmd_flash.o)
 .bss           0x0000000011081180        0x0 C:\u-boot-2009.11-cloud\common\libcommon.a(cmd_itest.o)
 .bss           0x0000000011081180       0x34 C:\u-boot-2009.11-cloud\common\libcommon.a(cmd_load.o)
 .bss           0x00000000110811b4        0x0 C:\u-boot-2009.11-cloud\common\libcommon.a(cmd_mac.o)
 .bss           0x00000000110811b4        0x4 C:\u-boot-2009.11-cloud\common\libcommon.a(cmd_mem.o)
 .bss           0x00000000110811b8        0x0 C:\u-boot-2009.11-cloud\common\libcommon.a(cmd_mii.o)
 .bss           0x00000000110811b8        0x0 C:\u-boot-2009.11-cloud\common\libcommon.a(cmd_misc.o)
 .bss           0x00000000110811b8        0x0 C:\u-boot-2009.11-cloud\common\libcommon.a(cmd_mp.o)
 .bss           0x00000000110811b8        0x0 C:\u-boot-2009.11-cloud\common\libcommon.a(cmd_nand.o)
 .bss           0x00000000110811b8        0x0 C:\u-boot-2009.11-cloud\common\libcommon.a(cmd_net.o)
 .bss           0x00000000110811b8        0x0 C:\u-boot-2009.11-cloud\common\libcommon.a(cmd_nvedit.o)
 .bss           0x00000000110811b8        0x0 C:\u-boot-2009.11-cloud\common\libcommon.a(cmd_setexpr.o)
 .bss           0x00000000110811b8        0x4 C:\u-boot-2009.11-cloud\common\libcommon.a(cmd_sf.o)
 .bss           0x00000000110811bc        0x0 C:\u-boot-2009.11-cloud\common\libcommon.a(cmd_source.o)
 .bss           0x00000000110811bc        0x0 C:\u-boot-2009.11-cloud\common\libcommon.a(command.o)
 .bss           0x00000000110811bc        0x8 C:\u-boot-2009.11-cloud\common\libcommon.a(console.o)
 .bss           0x00000000110811c4       0x38 C:\u-boot-2009.11-cloud\common\libcommon.a(dlmalloc.o)
 .bss           0x00000000110811fc        0x0 C:\u-boot-2009.11-cloud\common\libcommon.a(env_common.o)
 .bss           0x00000000110811fc        0x4 C:\u-boot-2009.11-cloud\common\libcommon.a(env_sf.o)
 .bss           0x0000000011081200        0x0 C:\u-boot-2009.11-cloud\common\libcommon.a(exports.o)
 .bss           0x0000000011081200        0x0 C:\u-boot-2009.11-cloud\common\libcommon.a(fdt_support.o)
 .bss           0x0000000011081200        0x0 C:\u-boot-2009.11-cloud\common\libcommon.a(flash.o)
 .bss           0x0000000011081200      0x250 C:\u-boot-2009.11-cloud\common\libcommon.a(hush.o)
 .bss           0x0000000011081450        0x0 C:\u-boot-2009.11-cloud\common\libcommon.a(image.o)
 .bss           0x0000000011081450        0xc C:\u-boot-2009.11-cloud\common\libcommon.a(main.o)
 .bss           0x000000001108145c        0xc C:\u-boot-2009.11-cloud\common\libcommon.a(miiphyutil.o)
 .bss           0x0000000011081468        0x0 C:\u-boot-2009.11-cloud\common\libcommon.a(s_record.o)
 .bss           0x0000000011081468        0x8 C:\u-boot-2009.11-cloud\common\libcommon.a(serial.o)
 .bss           0x0000000011081470       0x48 C:\u-boot-2009.11-cloud\common\libcommon.a(stdio.o)
                0x00000000110814ac                stdio_devices
 .bss           0x00000000110814b8        0x0 C:\u-boot-2009.11-cloud\libfdt\libfdt.a(fdt.o)
 .bss           0x00000000110814b8        0x0 C:\u-boot-2009.11-cloud\libfdt\libfdt.a(fdt_ro.o)
 .bss           0x00000000110814b8        0x0 C:\u-boot-2009.11-cloud\libfdt\libfdt.a(fdt_rw.o)
 .bss           0x00000000110814b8        0x0 C:\u-boot-2009.11-cloud\libfdt\libfdt.a(fdt_strerror.o)
 .bss           0x00000000110814b8        0x0 C:\u-boot-2009.11-cloud\libfdt\libfdt.a(fdt_wip.o)
 .bss           0x00000000110814b8        0x0 C:\u-boot-2009.11-cloud\board\freescale\p1_p2_rdb\libp1_p2_rdb.a(p1_p2_rdb.o)
 .bss           0x00000000110814b8        0x0 C:\u-boot-2009.11-cloud\board\freescale\p1_p2_rdb\libp1_p2_rdb.a(ddr.o)
 .bss           0x00000000110814b8        0x0 C:\u-boot-2009.11-cloud\board\freescale\p1_p2_rdb\libp1_p2_rdb.a(law.o)
 .bss           0x00000000110814b8        0x0 C:\u-boot-2009.11-cloud\board\freescale\p1_p2_rdb\libp1_p2_rdb.a(tlb.o)
 .bss           0x00000000110814b8        0x0 C:\u-boot-2009.11-cloud\lib_generic\libgeneric.a(crc32.o)
 .bss           0x00000000110814b8        0x0 C:\u-boot-2009.11-cloud\lib_generic\libgeneric.a(ctype.o)
 .bss           0x00000000110814b8        0x0 C:\u-boot-2009.11-cloud\lib_generic\libgeneric.a(display_options.o)
 .bss           0x00000000110814b8        0x0 C:\u-boot-2009.11-cloud\lib_generic\libgeneric.a(gunzip.o)
 .bss           0x00000000110814b8        0x0 C:\u-boot-2009.11-cloud\lib_generic\libgeneric.a(lmb.o)
 .bss           0x00000000110814b8        0x0 C:\u-boot-2009.11-cloud\lib_generic\libgeneric.a(md5.o)
 .bss           0x00000000110814b8        0x0 C:\u-boot-2009.11-cloud\lib_generic\libgeneric.a(sha1.o)
 .bss           0x00000000110814b8        0x0 C:\u-boot-2009.11-cloud\lib_generic\libgeneric.a(string.o)
 .bss           0x00000000110814b8        0x0 C:\u-boot-2009.11-cloud\lib_generic\libgeneric.a(strmhz.o)
 .bss           0x00000000110814b8        0x0 C:\u-boot-2009.11-cloud\lib_generic\libgeneric.a(vsprintf.o)
 .bss           0x00000000110814b8        0x0 C:\u-boot-2009.11-cloud\lib_generic\libgeneric.a(zlib.o)
 .bss           0x00000000110814b8       0x7c C:\u-boot-2009.11-cloud\board\freescale\common\libfreescale.a(sys_eeprom.o)
 .bss           0x0000000011081534        0x0 C:\u-boot-2009.11-cloud\cpu\mpc85xx\libmpc85xx.a(ddr-gen3.o)
 .bss           0x0000000011081534        0x0 C:\u-boot-2009.11-cloud\cpu\mpc85xx\libmpc85xx.a(fdt.o)
 .bss           0x0000000011081534        0x0 C:\u-boot-2009.11-cloud\cpu\mpc85xx\libmpc85xx.a(cpu.o)
 .bss           0x0000000011081534        0x0 C:\u-boot-2009.11-cloud\cpu\mpc85xx\libmpc85xx.a(interrupts.o)
 .bss           0x0000000011081534        0x0 C:\u-boot-2009.11-cloud\cpu\mpc85xx\libmpc85xx.a(speed.o)
 .bss           0x0000000011081534        0x0 C:\u-boot-2009.11-cloud\lib_ppc\libppc.a(bootm.o)
 .bss           0x0000000011081534        0x0 C:\u-boot-2009.11-cloud\lib_ppc\libppc.a(cache.o)
 .bss           0x0000000011081534        0x0 C:\u-boot-2009.11-cloud\drivers\mtd\nand\libnand.a(nand_util.o)
 .bss           0x0000000011081534        0x0 C:\u-boot-2009.11-cloud\drivers\mtd\spi\libspi_flash.a(spi_flash.o)
 .bss           0x0000000011081534        0x0 C:\u-boot-2009.11-cloud\drivers\mtd\spi\libspi_flash.a(spansion.o)
 *fill*         0x0000000011081534        0x4 00
 .bss           0x0000000011081538       0x60 C:\u-boot-2009.11-cloud\drivers\net\libnet.a(tsec.o)
 .bss           0x0000000011081598        0x0 C:\u-boot-2009.11-cloud\drivers\net\libnet.a(vsc7385.o)
 .bss           0x0000000011081598        0x0 C:\u-boot-2009.11-cloud\cpu\mpc8xxx\lib8xxx.a(fdt.o)
 .bss           0x0000000011081598        0x0 C:\u-boot-2009.11-cloud\drivers\rtc\librtc.a(date.o)
 .bss           0x0000000011081598        0x0 C:\u-boot-2009.11-cloud\drivers\rtc\librtc.a(ds1337.o)
 .bss           0x0000000011081598        0x0 C:\u-boot-2009.11-cloud\drivers\serial\libserial.a(serial.o)
 .bss           0x0000000011081598        0x0 C:\u-boot-2009.11-cloud\drivers\serial\libserial.a(ns16550.o)
 .bss           0x0000000011081598        0x0 C:\u-boot-2009.11-cloud\lib_generic\libgeneric.a(div64.o)
 .bss           0x0000000011081598        0x0 C:\Cross_Tools\4.3.2\libgcc.a(_lshrdi3.o)
 .bss           0x0000000011081598        0x0 C:\Cross_Tools\4.3.2\libgcc.a(_ashldi3.o)
 .bss           0x0000000011081598        0x0 C:\Cross_Tools\4.3.2\libgcc.a(_ashrdi3.o)
 *(COMMON)
 COMMON         0x0000000011081598     0x24d0 C:\u-boot-2009.11-cloud\net\libnet.a(net.o)
                0x0000000011081598                NetRxPackets
                0x00000000110815a8                BootFile
                0x0000000011081628                NetArpWaitPacketBuf
                0x0000000011081c48                PktBuf
 COMMON         0x0000000011083a68      0x2bc C:\u-boot-2009.11-cloud\drivers\mtd\libmtd.a(cfi_flash.o)
                0x0000000011083a68                flash_info
 *fill*         0x0000000011083d24        0x4 00
 COMMON         0x0000000011083d28       0xb0 C:\u-boot-2009.11-cloud\drivers\mtd\nand\libnand.a(nand.o)
                0x0000000011083d28                nand_info
 COMMON         0x0000000011083dd8       0x14 C:\u-boot-2009.11-cloud\common\libcommon.a(cmd_load.o)
                0x0000000011083dd8                send_parms
 COMMON         0x0000000011083dec     0x1550 C:\u-boot-2009.11-cloud\common\libcommon.a(main.o)
                0x0000000011083dec                console_buffer
                0x0000000011083eec                hist_list
                0x0000000011083f3c                hist_lines
                0x000000001108533c                . = ALIGN (0x4)
                0x000000001108533c                _end = .
                0x000000001108533c                PROVIDE (end, .)
Address of section .text set to 0x11000000
LOAD C:\u-boot-2009.11-cloud\cpu\mpc85xx\start.o
LOAD C:\u-boot-2009.11-cloud\cpu\mpc85xx\resetvec.o
START GROUP
LOAD C:\u-boot-2009.11-cloud\lib_generic\libgeneric.a
LOAD C:\u-boot-2009.11-cloud\board\freescale\common\libfreescale.a
LOAD C:\u-boot-2009.11-cloud\cpu\mpc85xx\libmpc85xx.a
LOAD C:\u-boot-2009.11-cloud\lib_ppc\libppc.a
LOAD C:\u-boot-2009.11-cloud\fs\fat\libfat.a
LOAD C:\u-boot-2009.11-cloud\fs\ext2\libext2fs.a
LOAD C:\u-boot-2009.11-cloud\net\libnet.a
LOAD C:\u-boot-2009.11-cloud\disk\libdisk.a
LOAD C:\u-boot-2009.11-cloud\drivers\i2c\libi2c.a
LOAD C:\u-boot-2009.11-cloud\drivers\misc\libmisc.a
LOAD C:\u-boot-2009.11-cloud\drivers\mmc\libmmc.a
LOAD C:\u-boot-2009.11-cloud\drivers\mtd\libmtd.a
LOAD C:\u-boot-2009.11-cloud\drivers\mtd\nand\libnand.a
LOAD C:\u-boot-2009.11-cloud\drivers\mtd\spi\libspi_flash.a
LOAD C:\u-boot-2009.11-cloud\drivers\net\libnet.a
LOAD C:\u-boot-2009.11-cloud\drivers\pci\libpci.a
LOAD C:\u-boot-2009.11-cloud\drivers\pcmcia\libpcmcia.a
LOAD C:\u-boot-2009.11-cloud\drivers\spi\libspi.a
LOAD C:\u-boot-2009.11-cloud\cpu\mpc8xxx\lib8xxx.a
LOAD C:\u-boot-2009.11-cloud\drivers\rtc\librtc.a
LOAD C:\u-boot-2009.11-cloud\drivers\serial\libserial.a
LOAD C:\u-boot-2009.11-cloud\drivers\usb\host\libusb_host.a
LOAD C:\u-boot-2009.11-cloud\common\libcommon.a
LOAD C:\u-boot-2009.11-cloud\libfdt\libfdt.a
LOAD C:\u-boot-2009.11-cloud\post\libpost.a
LOAD C:\u-boot-2009.11-cloud\board\freescale\p1_p2_rdb\libp1_p2_rdb.a
END GROUP
LOAD C:\Cross_Tools\4.3.2\libgcc.a
OUTPUT(u-boot elf32-powerpc)

.PPC.EMB.apuinfo
                0x0000000000000000       0x1c
 .PPC.EMB.apuinfo
                0x0000000000000000       0x1c start.o

.comment        0x0000000000000000     0x12a8
 .comment       0x0000000000000000       0x30 C:\u-boot-2009.11-cloud\cpu\mpc85xx\libmpc85xx.a(cpu_init.o)
 .comment       0x0000000000000030       0x30 C:\u-boot-2009.11-cloud\cpu\mpc85xx\libmpc85xx.a(cpu_init_early.o)
 .comment       0x0000000000000060       0x30 C:\u-boot-2009.11-cloud\cpu\mpc85xx\libmpc85xx.a(tlb.o)
 .comment       0x0000000000000090       0x30 C:\u-boot-2009.11-cloud\cpu\mpc85xx\libmpc85xx.a(traps.o)
 .comment       0x00000000000000c0       0x30 C:\u-boot-2009.11-cloud\cpu\mpc85xx\libmpc85xx.a(mp.o)
 .comment       0x00000000000000f0       0x30 C:\u-boot-2009.11-cloud\lib_ppc\libppc.a(board.o)
 .comment       0x0000000000000120       0x30 C:\u-boot-2009.11-cloud\lib_ppc\libppc.a(extable.o)
 .comment       0x0000000000000150       0x30 C:\u-boot-2009.11-cloud\lib_ppc\libppc.a(interrupts.o)
 .comment       0x0000000000000180       0x30 C:\u-boot-2009.11-cloud\lib_ppc\libppc.a(time.o)
 .comment       0x00000000000001b0       0x30 C:\u-boot-2009.11-cloud\net\libnet.a(eth.o)
 .comment       0x00000000000001e0       0x30 C:\u-boot-2009.11-cloud\net\libnet.a(net.o)
 .comment       0x0000000000000210       0x30 C:\u-boot-2009.11-cloud\net\libnet.a(nfs.o)
 .comment       0x0000000000000240       0x30 C:\u-boot-2009.11-cloud\net\libnet.a(rarp.o)
 .comment       0x0000000000000270       0x30 C:\u-boot-2009.11-cloud\net\libnet.a(tftp.o)
 .comment       0x00000000000002a0       0x30 C:\u-boot-2009.11-cloud\net\libnet.a(bootp.o)
 .comment       0x00000000000002d0       0x30 C:\u-boot-2009.11-cloud\drivers\i2c\libi2c.a(fsl_i2c.o)
 .comment       0x0000000000000300       0x30 C:\u-boot-2009.11-cloud\drivers\misc\libmisc.a(fsl_law.o)
 .comment       0x0000000000000330       0x30 C:\u-boot-2009.11-cloud\drivers\mtd\libmtd.a(cfi_flash.o)
 .comment       0x0000000000000360       0x30 C:\u-boot-2009.11-cloud\drivers\mtd\nand\libnand.a(nand.o)
 .comment       0x0000000000000390       0x30 C:\u-boot-2009.11-cloud\drivers\mtd\nand\libnand.a(nand_base.o)
 .comment       0x00000000000003c0       0x30 C:\u-boot-2009.11-cloud\drivers\mtd\nand\libnand.a(nand_bbt.o)
 .comment       0x00000000000003f0       0x30 C:\u-boot-2009.11-cloud\drivers\mtd\nand\libnand.a(nand_ecc.o)
 .comment       0x0000000000000420       0x30 C:\u-boot-2009.11-cloud\drivers\mtd\nand\libnand.a(nand_ids.o)
 .comment       0x0000000000000450       0x30 C:\u-boot-2009.11-cloud\drivers\mtd\nand\libnand.a(fsl_elbc_nand.o)
 .comment       0x0000000000000480       0x12 C:\u-boot-2009.11-cloud\drivers\spi\libspi.a(fsl_espi.o)
 .comment       0x0000000000000492       0x30 C:\u-boot-2009.11-cloud\cpu\mpc8xxx\lib8xxx.a(cpu.o)
 .comment       0x00000000000004c2       0x30 C:\u-boot-2009.11-cloud\common\libcommon.a(cmd_bdinfo.o)
 .comment       0x00000000000004f2       0x30 C:\u-boot-2009.11-cloud\common\libcommon.a(cmd_boot.o)
 .comment       0x0000000000000522       0x30 C:\u-boot-2009.11-cloud\common\libcommon.a(cmd_bootm.o)
 .comment       0x0000000000000552       0x30 C:\u-boot-2009.11-cloud\common\libcommon.a(cmd_elf.o)
 .comment       0x0000000000000582       0x30 C:\u-boot-2009.11-cloud\common\libcommon.a(cmd_fdt.o)
 .comment       0x00000000000005b2       0x30 C:\u-boot-2009.11-cloud\common\libcommon.a(cmd_flash.o)
 .comment       0x00000000000005e2       0x30 C:\u-boot-2009.11-cloud\common\libcommon.a(cmd_itest.o)
 .comment       0x0000000000000612       0x30 C:\u-boot-2009.11-cloud\common\libcommon.a(cmd_load.o)
 .comment       0x0000000000000642       0x30 C:\u-boot-2009.11-cloud\common\libcommon.a(cmd_mac.o)
 .comment       0x0000000000000672       0x30 C:\u-boot-2009.11-cloud\common\libcommon.a(cmd_mem.o)
 .comment       0x00000000000006a2       0x30 C:\u-boot-2009.11-cloud\common\libcommon.a(cmd_mii.o)
 .comment       0x00000000000006d2       0x30 C:\u-boot-2009.11-cloud\common\libcommon.a(cmd_misc.o)
 .comment       0x0000000000000702       0x30 C:\u-boot-2009.11-cloud\common\libcommon.a(cmd_mp.o)
 .comment       0x0000000000000732       0x30 C:\u-boot-2009.11-cloud\common\libcommon.a(cmd_nand.o)
 .comment       0x0000000000000762       0x30 C:\u-boot-2009.11-cloud\common\libcommon.a(cmd_net.o)
 .comment       0x0000000000000792       0x30 C:\u-boot-2009.11-cloud\common\libcommon.a(cmd_nvedit.o)
 .comment       0x00000000000007c2       0x30 C:\u-boot-2009.11-cloud\common\libcommon.a(cmd_setexpr.o)
 .comment       0x00000000000007f2       0x30 C:\u-boot-2009.11-cloud\common\libcommon.a(cmd_sf.o)
 .comment       0x0000000000000822       0x30 C:\u-boot-2009.11-cloud\common\libcommon.a(cmd_source.o)
 .comment       0x0000000000000852       0x30 C:\u-boot-2009.11-cloud\common\libcommon.a(command.o)
 .comment       0x0000000000000882       0x30 C:\u-boot-2009.11-cloud\common\libcommon.a(console.o)
 .comment       0x00000000000008b2       0x30 C:\u-boot-2009.11-cloud\common\libcommon.a(dlmalloc.o)
 .comment       0x00000000000008e2       0x30 C:\u-boot-2009.11-cloud\common\libcommon.a(env_common.o)
 .comment       0x0000000000000912       0x30 C:\u-boot-2009.11-cloud\common\libcommon.a(env_sf.o)
 .comment       0x0000000000000942       0x30 C:\u-boot-2009.11-cloud\common\libcommon.a(exports.o)
 .comment       0x0000000000000972       0x30 C:\u-boot-2009.11-cloud\common\libcommon.a(fdt_support.o)
 .comment       0x00000000000009a2       0x30 C:\u-boot-2009.11-cloud\common\libcommon.a(flash.o)
 .comment       0x00000000000009d2       0x30 C:\u-boot-2009.11-cloud\common\libcommon.a(hush.o)
 .comment       0x0000000000000a02       0x30 C:\u-boot-2009.11-cloud\common\libcommon.a(image.o)
 .comment       0x0000000000000a32       0x30 C:\u-boot-2009.11-cloud\common\libcommon.a(main.o)
 .comment       0x0000000000000a62       0x30 C:\u-boot-2009.11-cloud\common\libcommon.a(miiphyutil.o)
 .comment       0x0000000000000a92       0x30 C:\u-boot-2009.11-cloud\common\libcommon.a(s_record.o)
 .comment       0x0000000000000ac2       0x30 C:\u-boot-2009.11-cloud\common\libcommon.a(serial.o)
 .comment       0x0000000000000af2       0x30 C:\u-boot-2009.11-cloud\common\libcommon.a(stdio.o)
 .comment       0x0000000000000b22       0x30 C:\u-boot-2009.11-cloud\libfdt\libfdt.a(fdt.o)
 .comment       0x0000000000000b52       0x30 C:\u-boot-2009.11-cloud\libfdt\libfdt.a(fdt_ro.o)
 .comment       0x0000000000000b82       0x30 C:\u-boot-2009.11-cloud\libfdt\libfdt.a(fdt_rw.o)
 .comment       0x0000000000000bb2       0x30 C:\u-boot-2009.11-cloud\libfdt\libfdt.a(fdt_strerror.o)
 .comment       0x0000000000000be2       0x30 C:\u-boot-2009.11-cloud\libfdt\libfdt.a(fdt_wip.o)
 .comment       0x0000000000000c12       0x30 C:\u-boot-2009.11-cloud\board\freescale\p1_p2_rdb\libp1_p2_rdb.a(p1_p2_rdb.o)
 .comment       0x0000000000000c42       0x30 C:\u-boot-2009.11-cloud\board\freescale\p1_p2_rdb\libp1_p2_rdb.a(ddr.o)
 .comment       0x0000000000000c72       0x30 C:\u-boot-2009.11-cloud\board\freescale\p1_p2_rdb\libp1_p2_rdb.a(law.o)
 .comment       0x0000000000000ca2       0x30 C:\u-boot-2009.11-cloud\board\freescale\p1_p2_rdb\libp1_p2_rdb.a(tlb.o)
 .comment       0x0000000000000cd2       0x30 C:\u-boot-2009.11-cloud\lib_generic\libgeneric.a(crc32.o)
 .comment       0x0000000000000d02       0x30 C:\u-boot-2009.11-cloud\lib_generic\libgeneric.a(ctype.o)
 .comment       0x0000000000000d32       0x30 C:\u-boot-2009.11-cloud\lib_generic\libgeneric.a(display_options.o)
 .comment       0x0000000000000d62       0x30 C:\u-boot-2009.11-cloud\lib_generic\libgeneric.a(gunzip.o)
 .comment       0x0000000000000d92       0x30 C:\u-boot-2009.11-cloud\lib_generic\libgeneric.a(lmb.o)
 .comment       0x0000000000000dc2       0x30 C:\u-boot-2009.11-cloud\lib_generic\libgeneric.a(md5.o)
 .comment       0x0000000000000df2       0x30 C:\u-boot-2009.11-cloud\lib_generic\libgeneric.a(sha1.o)
 .comment       0x0000000000000e22       0x30 C:\u-boot-2009.11-cloud\lib_generic\libgeneric.a(string.o)
 .comment       0x0000000000000e52       0x30 C:\u-boot-2009.11-cloud\lib_generic\libgeneric.a(strmhz.o)
 .comment       0x0000000000000e82       0x30 C:\u-boot-2009.11-cloud\lib_generic\libgeneric.a(vsprintf.o)
 .comment       0x0000000000000eb2       0x30 C:\u-boot-2009.11-cloud\lib_generic\libgeneric.a(zlib.o)
 .comment       0x0000000000000ee2       0x30 C:\u-boot-2009.11-cloud\board\freescale\common\libfreescale.a(sys_eeprom.o)
 .comment       0x0000000000000f12       0x30 C:\u-boot-2009.11-cloud\cpu\mpc85xx\libmpc85xx.a(ddr-gen3.o)
 .comment       0x0000000000000f42       0x30 C:\u-boot-2009.11-cloud\cpu\mpc85xx\libmpc85xx.a(fdt.o)
 .comment       0x0000000000000f72       0x30 C:\u-boot-2009.11-cloud\cpu\mpc85xx\libmpc85xx.a(cpu.o)
 .comment       0x0000000000000fa2       0x30 C:\u-boot-2009.11-cloud\cpu\mpc85xx\libmpc85xx.a(interrupts.o)
 .comment       0x0000000000000fd2       0x30 C:\u-boot-2009.11-cloud\cpu\mpc85xx\libmpc85xx.a(speed.o)
 .comment       0x0000000000001002       0x30 C:\u-boot-2009.11-cloud\lib_ppc\libppc.a(bootm.o)
 .comment       0x0000000000001032       0x30 C:\u-boot-2009.11-cloud\lib_ppc\libppc.a(cache.o)
 .comment       0x0000000000001062       0x30 C:\u-boot-2009.11-cloud\drivers\mtd\nand\libnand.a(nand_util.o)
 .comment       0x0000000000001092       0x30 C:\u-boot-2009.11-cloud\drivers\mtd\spi\libspi_flash.a(spi_flash.o)
 .comment       0x00000000000010c2       0x30 C:\u-boot-2009.11-cloud\drivers\mtd\spi\libspi_flash.a(spansion.o)
 .comment       0x00000000000010f2       0x30 C:\u-boot-2009.11-cloud\drivers\net\libnet.a(tsec.o)
 .comment       0x0000000000001122       0x30 C:\u-boot-2009.11-cloud\drivers\net\libnet.a(vsc7385.o)
 .comment       0x0000000000001152       0x30 C:\u-boot-2009.11-cloud\cpu\mpc8xxx\lib8xxx.a(fdt.o)
 .comment       0x0000000000001182       0x30 C:\u-boot-2009.11-cloud\drivers\rtc\librtc.a(date.o)
 .comment       0x00000000000011b2       0x30 C:\u-boot-2009.11-cloud\drivers\rtc\librtc.a(ds1337.o)
 .comment       0x00000000000011e2       0x30 C:\u-boot-2009.11-cloud\drivers\serial\libserial.a(serial.o)
 .comment       0x0000000000001212       0x30 C:\u-boot-2009.11-cloud\drivers\serial\libserial.a(ns16550.o)
 .comment       0x0000000000001242       0x30 C:\u-boot-2009.11-cloud\lib_generic\libgeneric.a(div64.o)
 .comment       0x0000000000001272       0x12 C:\Cross_Tools\4.3.2\libgcc.a(_lshrdi3.o)
 .comment       0x0000000000001284       0x12 C:\Cross_Tools\4.3.2\libgcc.a(_ashldi3.o)
 .comment       0x0000000000001296       0x12 C:\Cross_Tools\4.3.2\libgcc.a(_ashrdi3.o)

.note.GNU-stack
                0x0000000000000000        0x0
 .note.GNU-stack
                0x0000000000000000        0x0 C:\u-boot-2009.11-cloud\cpu\mpc85xx\libmpc85xx.a(cpu_init.o)
 .note.GNU-stack
                0x0000000000000000        0x0 C:\u-boot-2009.11-cloud\cpu\mpc85xx\libmpc85xx.a(cpu_init_early.o)
 .note.GNU-stack
                0x0000000000000000        0x0 C:\u-boot-2009.11-cloud\cpu\mpc85xx\libmpc85xx.a(tlb.o)
 .note.GNU-stack
                0x0000000000000000        0x0 C:\u-boot-2009.11-cloud\cpu\mpc85xx\libmpc85xx.a(traps.o)
 .note.GNU-stack
                0x0000000000000000        0x0 C:\u-boot-2009.11-cloud\cpu\mpc85xx\libmpc85xx.a(mp.o)
 .note.GNU-stack
                0x0000000000000000        0x0 C:\u-boot-2009.11-cloud\lib_ppc\libppc.a(board.o)
 .note.GNU-stack
                0x0000000000000000        0x0 C:\u-boot-2009.11-cloud\lib_ppc\libppc.a(extable.o)
 .note.GNU-stack
                0x0000000000000000        0x0 C:\u-boot-2009.11-cloud\lib_ppc\libppc.a(interrupts.o)
 .note.GNU-stack
                0x0000000000000000        0x0 C:\u-boot-2009.11-cloud\lib_ppc\libppc.a(time.o)
 .note.GNU-stack
                0x0000000000000000        0x0 C:\u-boot-2009.11-cloud\net\libnet.a(eth.o)
 .note.GNU-stack
                0x0000000000000000        0x0 C:\u-boot-2009.11-cloud\net\libnet.a(net.o)
 .note.GNU-stack
                0x0000000000000000        0x0 C:\u-boot-2009.11-cloud\net\libnet.a(nfs.o)
 .note.GNU-stack
                0x0000000000000000        0x0 C:\u-boot-2009.11-cloud\net\libnet.a(rarp.o)
 .note.GNU-stack
                0x0000000000000000        0x0 C:\u-boot-2009.11-cloud\net\libnet.a(tftp.o)
 .note.GNU-stack
                0x0000000000000000        0x0 C:\u-boot-2009.11-cloud\net\libnet.a(bootp.o)
 .note.GNU-stack
                0x0000000000000000        0x0 C:\u-boot-2009.11-cloud\drivers\i2c\libi2c.a(fsl_i2c.o)
 .note.GNU-stack
                0x0000000000000000        0x0 C:\u-boot-2009.11-cloud\drivers\misc\libmisc.a(fsl_law.o)
 .note.GNU-stack
                0x0000000000000000        0x0 C:\u-boot-2009.11-cloud\drivers\mtd\libmtd.a(cfi_flash.o)
 .note.GNU-stack
                0x0000000000000000        0x0 C:\u-boot-2009.11-cloud\drivers\mtd\nand\libnand.a(nand.o)
 .note.GNU-stack
                0x0000000000000000        0x0 C:\u-boot-2009.11-cloud\drivers\mtd\nand\libnand.a(nand_base.o)
 .note.GNU-stack
                0x0000000000000000        0x0 C:\u-boot-2009.11-cloud\drivers\mtd\nand\libnand.a(nand_bbt.o)
 .note.GNU-stack
                0x0000000000000000        0x0 C:\u-boot-2009.11-cloud\drivers\mtd\nand\libnand.a(nand_ecc.o)
 .note.GNU-stack
                0x0000000000000000        0x0 C:\u-boot-2009.11-cloud\drivers\mtd\nand\libnand.a(nand_ids.o)
 .note.GNU-stack
                0x0000000000000000        0x0 C:\u-boot-2009.11-cloud\drivers\mtd\nand\libnand.a(fsl_elbc_nand.o)
 .note.GNU-stack
                0x0000000000000000        0x0 C:\u-boot-2009.11-cloud\drivers\spi\libspi.a(fsl_espi.o)
 .note.GNU-stack
                0x0000000000000000        0x0 C:\u-boot-2009.11-cloud\cpu\mpc8xxx\lib8xxx.a(cpu.o)
 .note.GNU-stack
                0x0000000000000000        0x0 C:\u-boot-2009.11-cloud\common\libcommon.a(cmd_bdinfo.o)
 .note.GNU-stack
                0x0000000000000000        0x0 C:\u-boot-2009.11-cloud\common\libcommon.a(cmd_boot.o)
 .note.GNU-stack
                0x0000000000000000        0x0 C:\u-boot-2009.11-cloud\common\libcommon.a(cmd_bootm.o)
 .note.GNU-stack
                0x0000000000000000        0x0 C:\u-boot-2009.11-cloud\common\libcommon.a(cmd_elf.o)
 .note.GNU-stack
                0x0000000000000000        0x0 C:\u-boot-2009.11-cloud\common\libcommon.a(cmd_fdt.o)
 .note.GNU-stack
                0x0000000000000000        0x0 C:\u-boot-2009.11-cloud\common\libcommon.a(cmd_flash.o)
 .note.GNU-stack
                0x0000000000000000        0x0 C:\u-boot-2009.11-cloud\common\libcommon.a(cmd_itest.o)
 .note.GNU-stack
                0x0000000000000000        0x0 C:\u-boot-2009.11-cloud\common\libcommon.a(cmd_load.o)
 .note.GNU-stack
                0x0000000000000000        0x0 C:\u-boot-2009.11-cloud\common\libcommon.a(cmd_mac.o)
 .note.GNU-stack
                0x0000000000000000        0x0 C:\u-boot-2009.11-cloud\common\libcommon.a(cmd_mem.o)
 .note.GNU-stack
                0x0000000000000000        0x0 C:\u-boot-2009.11-cloud\common\libcommon.a(cmd_mii.o)
 .note.GNU-stack
                0x0000000000000000        0x0 C:\u-boot-2009.11-cloud\common\libcommon.a(cmd_misc.o)
 .note.GNU-stack
                0x0000000000000000        0x0 C:\u-boot-2009.11-cloud\common\libcommon.a(cmd_mp.o)
 .note.GNU-stack
                0x0000000000000000        0x0 C:\u-boot-2009.11-cloud\common\libcommon.a(cmd_nand.o)
 .note.GNU-stack
                0x0000000000000000        0x0 C:\u-boot-2009.11-cloud\common\libcommon.a(cmd_net.o)
 .note.GNU-stack
                0x0000000000000000        0x0 C:\u-boot-2009.11-cloud\common\libcommon.a(cmd_nvedit.o)
 .note.GNU-stack
                0x0000000000000000        0x0 C:\u-boot-2009.11-cloud\common\libcommon.a(cmd_setexpr.o)
 .note.GNU-stack
                0x0000000000000000        0x0 C:\u-boot-2009.11-cloud\common\libcommon.a(cmd_sf.o)
 .note.GNU-stack
                0x0000000000000000        0x0 C:\u-boot-2009.11-cloud\common\libcommon.a(cmd_source.o)
 .note.GNU-stack
                0x0000000000000000        0x0 C:\u-boot-2009.11-cloud\common\libcommon.a(command.o)
 .note.GNU-stack
                0x0000000000000000        0x0 C:\u-boot-2009.11-cloud\common\libcommon.a(console.o)
 .note.GNU-stack
                0x0000000000000000        0x0 C:\u-boot-2009.11-cloud\common\libcommon.a(dlmalloc.o)
 .note.GNU-stack
                0x0000000000000000        0x0 C:\u-boot-2009.11-cloud\common\libcommon.a(env_common.o)
 .note.GNU-stack
                0x0000000000000000        0x0 C:\u-boot-2009.11-cloud\common\libcommon.a(env_sf.o)
 .note.GNU-stack
                0x0000000000000000        0x0 C:\u-boot-2009.11-cloud\common\libcommon.a(exports.o)
 .note.GNU-stack
                0x0000000000000000        0x0 C:\u-boot-2009.11-cloud\common\libcommon.a(fdt_support.o)
 .note.GNU-stack
                0x0000000000000000        0x0 C:\u-boot-2009.11-cloud\common\libcommon.a(flash.o)
 .note.GNU-stack
                0x0000000000000000        0x0 C:\u-boot-2009.11-cloud\common\libcommon.a(hush.o)
 .note.GNU-stack
                0x0000000000000000        0x0 C:\u-boot-2009.11-cloud\common\libcommon.a(image.o)
 .note.GNU-stack
                0x0000000000000000        0x0 C:\u-boot-2009.11-cloud\common\libcommon.a(main.o)
 .note.GNU-stack
                0x0000000000000000        0x0 C:\u-boot-2009.11-cloud\common\libcommon.a(miiphyutil.o)
 .note.GNU-stack
                0x0000000000000000        0x0 C:\u-boot-2009.11-cloud\common\libcommon.a(s_record.o)
 .note.GNU-stack
                0x0000000000000000        0x0 C:\u-boot-2009.11-cloud\common\libcommon.a(serial.o)
 .note.GNU-stack
                0x0000000000000000        0x0 C:\u-boot-2009.11-cloud\common\libcommon.a(stdio.o)
 .note.GNU-stack
                0x0000000000000000        0x0 C:\u-boot-2009.11-cloud\libfdt\libfdt.a(fdt.o)
 .note.GNU-stack
                0x0000000000000000        0x0 C:\u-boot-2009.11-cloud\libfdt\libfdt.a(fdt_ro.o)
 .note.GNU-stack
                0x0000000000000000        0x0 C:\u-boot-2009.11-cloud\libfdt\libfdt.a(fdt_rw.o)
 .note.GNU-stack
                0x0000000000000000        0x0 C:\u-boot-2009.11-cloud\libfdt\libfdt.a(fdt_strerror.o)
 .note.GNU-stack
                0x0000000000000000        0x0 C:\u-boot-2009.11-cloud\libfdt\libfdt.a(fdt_wip.o)
 .note.GNU-stack
                0x0000000000000000        0x0 C:\u-boot-2009.11-cloud\board\freescale\p1_p2_rdb\libp1_p2_rdb.a(p1_p2_rdb.o)
 .note.GNU-stack
                0x0000000000000000        0x0 C:\u-boot-2009.11-cloud\board\freescale\p1_p2_rdb\libp1_p2_rdb.a(ddr.o)
 .note.GNU-stack
                0x0000000000000000        0x0 C:\u-boot-2009.11-cloud\board\freescale\p1_p2_rdb\libp1_p2_rdb.a(law.o)
 .note.GNU-stack
                0x0000000000000000        0x0 C:\u-boot-2009.11-cloud\board\freescale\p1_p2_rdb\libp1_p2_rdb.a(tlb.o)
 .note.GNU-stack
                0x0000000000000000        0x0 C:\u-boot-2009.11-cloud\lib_generic\libgeneric.a(crc32.o)
 .note.GNU-stack
                0x0000000000000000        0x0 C:\u-boot-2009.11-cloud\lib_generic\libgeneric.a(ctype.o)
 .note.GNU-stack
                0x0000000000000000        0x0 C:\u-boot-2009.11-cloud\lib_generic\libgeneric.a(display_options.o)
 .note.GNU-stack
                0x0000000000000000        0x0 C:\u-boot-2009.11-cloud\lib_generic\libgeneric.a(gunzip.o)
 .note.GNU-stack
                0x0000000000000000        0x0 C:\u-boot-2009.11-cloud\lib_generic\libgeneric.a(lmb.o)
 .note.GNU-stack
                0x0000000000000000        0x0 C:\u-boot-2009.11-cloud\lib_generic\libgeneric.a(md5.o)
 .note.GNU-stack
                0x0000000000000000        0x0 C:\u-boot-2009.11-cloud\lib_generic\libgeneric.a(sha1.o)
 .note.GNU-stack
                0x0000000000000000        0x0 C:\u-boot-2009.11-cloud\lib_generic\libgeneric.a(string.o)
 .note.GNU-stack
                0x0000000000000000        0x0 C:\u-boot-2009.11-cloud\lib_generic\libgeneric.a(strmhz.o)
 .note.GNU-stack
                0x0000000000000000        0x0 C:\u-boot-2009.11-cloud\lib_generic\libgeneric.a(vsprintf.o)
 .note.GNU-stack
                0x0000000000000000        0x0 C:\u-boot-2009.11-cloud\lib_generic\libgeneric.a(zlib.o)
 .note.GNU-stack
                0x0000000000000000        0x0 C:\u-boot-2009.11-cloud\board\freescale\common\libfreescale.a(sys_eeprom.o)
 .note.GNU-stack
                0x0000000000000000        0x0 C:\u-boot-2009.11-cloud\cpu\mpc85xx\libmpc85xx.a(ddr-gen3.o)
 .note.GNU-stack
                0x0000000000000000        0x0 C:\u-boot-2009.11-cloud\cpu\mpc85xx\libmpc85xx.a(fdt.o)
 .note.GNU-stack
                0x0000000000000000        0x0 C:\u-boot-2009.11-cloud\cpu\mpc85xx\libmpc85xx.a(cpu.o)
 .note.GNU-stack
                0x0000000000000000        0x0 C:\u-boot-2009.11-cloud\cpu\mpc85xx\libmpc85xx.a(interrupts.o)
 .note.GNU-stack
                0x0000000000000000        0x0 C:\u-boot-2009.11-cloud\cpu\mpc85xx\libmpc85xx.a(speed.o)
 .note.GNU-stack
                0x0000000000000000        0x0 C:\u-boot-2009.11-cloud\lib_ppc\libppc.a(bootm.o)
 .note.GNU-stack
                0x0000000000000000        0x0 C:\u-boot-2009.11-cloud\lib_ppc\libppc.a(cache.o)
 .note.GNU-stack
                0x0000000000000000        0x0 C:\u-boot-2009.11-cloud\drivers\mtd\nand\libnand.a(nand_util.o)
 .note.GNU-stack
                0x0000000000000000        0x0 C:\u-boot-2009.11-cloud\drivers\mtd\spi\libspi_flash.a(spi_flash.o)
 .note.GNU-stack
                0x0000000000000000        0x0 C:\u-boot-2009.11-cloud\drivers\mtd\spi\libspi_flash.a(spansion.o)
 .note.GNU-stack
                0x0000000000000000        0x0 C:\u-boot-2009.11-cloud\drivers\net\libnet.a(tsec.o)
 .note.GNU-stack
                0x0000000000000000        0x0 C:\u-boot-2009.11-cloud\drivers\net\libnet.a(vsc7385.o)
 .note.GNU-stack
                0x0000000000000000        0x0 C:\u-boot-2009.11-cloud\cpu\mpc8xxx\lib8xxx.a(fdt.o)
 .note.GNU-stack
                0x0000000000000000        0x0 C:\u-boot-2009.11-cloud\drivers\rtc\librtc.a(date.o)
 .note.GNU-stack
                0x0000000000000000        0x0 C:\u-boot-2009.11-cloud\drivers\rtc\librtc.a(ds1337.o)
 .note.GNU-stack
                0x0000000000000000        0x0 C:\u-boot-2009.11-cloud\drivers\serial\libserial.a(serial.o)
 .note.GNU-stack
                0x0000000000000000        0x0 C:\u-boot-2009.11-cloud\drivers\serial\libserial.a(ns16550.o)
 .note.GNU-stack
                0x0000000000000000        0x0 C:\u-boot-2009.11-cloud\lib_generic\libgeneric.a(div64.o)
 .note.GNU-stack
                0x0000000000000000        0x0 C:\Cross_Tools\4.3.2\libgcc.a(_lshrdi3.o)
 .note.GNU-stack
                0x0000000000000000        0x0 C:\Cross_Tools\4.3.2\libgcc.a(_ashldi3.o)
 .note.GNU-stack
                0x0000000000000000        0x0 C:\Cross_Tools\4.3.2\libgcc.a(_ashrdi3.o)

.gnu.attributes
                0x0000000000000000       0x14
 .gnu.attributes
                0x0000000000000000       0x14 C:\u-boot-2009.11-cloud\cpu\mpc85xx\libmpc85xx.a(cpu_init.o)
 .gnu.attributes
                0x0000000000000014       0x14 C:\u-boot-2009.11-cloud\cpu\mpc85xx\libmpc85xx.a(cpu_init_early.o)
 .gnu.attributes
                0x0000000000000028       0x14 C:\u-boot-2009.11-cloud\cpu\mpc85xx\libmpc85xx.a(tlb.o)
 .gnu.attributes
                0x000000000000003c       0x14 C:\u-boot-2009.11-cloud\cpu\mpc85xx\libmpc85xx.a(traps.o)
 .gnu.attributes
                0x0000000000000050       0x14 C:\u-boot-2009.11-cloud\cpu\mpc85xx\libmpc85xx.a(mp.o)
 .gnu.attributes
                0x0000000000000064       0x14 C:\u-boot-2009.11-cloud\lib_ppc\libppc.a(board.o)
 .gnu.attributes
                0x0000000000000078       0x14 C:\u-boot-2009.11-cloud\lib_ppc\libppc.a(extable.o)
 .gnu.attributes
                0x000000000000008c       0x14 C:\u-boot-2009.11-cloud\lib_ppc\libppc.a(interrupts.o)
 .gnu.attributes
                0x00000000000000a0       0x14 C:\u-boot-2009.11-cloud\lib_ppc\libppc.a(time.o)
 .gnu.attributes
                0x00000000000000b4       0x14 C:\u-boot-2009.11-cloud\net\libnet.a(eth.o)
 .gnu.attributes
                0x00000000000000c8       0x14 C:\u-boot-2009.11-cloud\net\libnet.a(net.o)
 .gnu.attributes
                0x00000000000000dc       0x14 C:\u-boot-2009.11-cloud\net\libnet.a(nfs.o)
 .gnu.attributes
                0x00000000000000f0       0x14 C:\u-boot-2009.11-cloud\net\libnet.a(rarp.o)
 .gnu.attributes
                0x0000000000000104       0x14 C:\u-boot-2009.11-cloud\net\libnet.a(tftp.o)
 .gnu.attributes
                0x0000000000000118       0x14 C:\u-boot-2009.11-cloud\net\libnet.a(bootp.o)
 .gnu.attributes
                0x000000000000012c       0x14 C:\u-boot-2009.11-cloud\drivers\i2c\libi2c.a(fsl_i2c.o)
 .gnu.attributes
                0x0000000000000140       0x14 C:\u-boot-2009.11-cloud\drivers\misc\libmisc.a(fsl_law.o)
 .gnu.attributes
                0x0000000000000154       0x14 C:\u-boot-2009.11-cloud\drivers\mtd\libmtd.a(cfi_flash.o)
 .gnu.attributes
                0x0000000000000168       0x14 C:\u-boot-2009.11-cloud\drivers\mtd\nand\libnand.a(nand.o)
 .gnu.attributes
                0x000000000000017c       0x14 C:\u-boot-2009.11-cloud\drivers\mtd\nand\libnand.a(nand_base.o)
 .gnu.attributes
                0x0000000000000190       0x14 C:\u-boot-2009.11-cloud\drivers\mtd\nand\libnand.a(nand_bbt.o)
 .gnu.attributes
                0x00000000000001a4       0x14 C:\u-boot-2009.11-cloud\drivers\mtd\nand\libnand.a(nand_ecc.o)
 .gnu.attributes
                0x00000000000001b8       0x14 C:\u-boot-2009.11-cloud\drivers\mtd\nand\libnand.a(nand_ids.o)
 .gnu.attributes
                0x00000000000001cc       0x14 C:\u-boot-2009.11-cloud\drivers\mtd\nand\libnand.a(fsl_elbc_nand.o)
 .gnu.attributes
                0x00000000000001e0       0x14 C:\u-boot-2009.11-cloud\drivers\spi\libspi.a(fsl_espi.o)
 .gnu.attributes
                0x00000000000001f4       0x14 C:\u-boot-2009.11-cloud\cpu\mpc8xxx\lib8xxx.a(cpu.o)
 .gnu.attributes
                0x0000000000000208       0x14 C:\u-boot-2009.11-cloud\common\libcommon.a(cmd_bdinfo.o)
 .gnu.attributes
                0x000000000000021c       0x14 C:\u-boot-2009.11-cloud\common\libcommon.a(cmd_boot.o)
 .gnu.attributes
                0x0000000000000230       0x14 C:\u-boot-2009.11-cloud\common\libcommon.a(cmd_bootm.o)
 .gnu.attributes
                0x0000000000000244       0x14 C:\u-boot-2009.11-cloud\common\libcommon.a(cmd_elf.o)
 .gnu.attributes
                0x0000000000000258       0x14 C:\u-boot-2009.11-cloud\common\libcommon.a(cmd_fdt.o)
 .gnu.attributes
                0x000000000000026c       0x14 C:\u-boot-2009.11-cloud\common\libcommon.a(cmd_flash.o)
 .gnu.attributes
                0x0000000000000280       0x14 C:\u-boot-2009.11-cloud\common\libcommon.a(cmd_itest.o)
 .gnu.attributes
                0x0000000000000294       0x14 C:\u-boot-2009.11-cloud\common\libcommon.a(cmd_load.o)
 .gnu.attributes
                0x00000000000002a8       0x14 C:\u-boot-2009.11-cloud\common\libcommon.a(cmd_mac.o)
 .gnu.attributes
                0x00000000000002bc       0x14 C:\u-boot-2009.11-cloud\common\libcommon.a(cmd_mem.o)
 .gnu.attributes
                0x00000000000002d0       0x14 C:\u-boot-2009.11-cloud\common\libcommon.a(cmd_mii.o)
 .gnu.attributes
                0x00000000000002e4       0x14 C:\u-boot-2009.11-cloud\common\libcommon.a(cmd_misc.o)
 .gnu.attributes
                0x00000000000002f8       0x14 C:\u-boot-2009.11-cloud\common\libcommon.a(cmd_mp.o)
 .gnu.attributes
                0x000000000000030c       0x14 C:\u-boot-2009.11-cloud\common\libcommon.a(cmd_nand.o)
 .gnu.attributes
                0x0000000000000320       0x14 C:\u-boot-2009.11-cloud\common\libcommon.a(cmd_net.o)
 .gnu.attributes
                0x0000000000000334       0x14 C:\u-boot-2009.11-cloud\common\libcommon.a(cmd_nvedit.o)
 .gnu.attributes
                0x0000000000000348       0x14 C:\u-boot-2009.11-cloud\common\libcommon.a(cmd_setexpr.o)
 .gnu.attributes
                0x000000000000035c       0x14 C:\u-boot-2009.11-cloud\common\libcommon.a(cmd_sf.o)
 .gnu.attributes
                0x0000000000000370       0x14 C:\u-boot-2009.11-cloud\common\libcommon.a(cmd_source.o)
 .gnu.attributes
                0x0000000000000384       0x14 C:\u-boot-2009.11-cloud\common\libcommon.a(command.o)
 .gnu.attributes
                0x0000000000000398       0x14 C:\u-boot-2009.11-cloud\common\libcommon.a(console.o)
 .gnu.attributes
                0x00000000000003ac       0x14 C:\u-boot-2009.11-cloud\common\libcommon.a(dlmalloc.o)
 .gnu.attributes
                0x00000000000003c0       0x14 C:\u-boot-2009.11-cloud\common\libcommon.a(env_common.o)
 .gnu.attributes
                0x00000000000003d4       0x14 C:\u-boot-2009.11-cloud\common\libcommon.a(env_sf.o)
 .gnu.attributes
                0x00000000000003e8       0x14 C:\u-boot-2009.11-cloud\common\libcommon.a(exports.o)
 .gnu.attributes
                0x00000000000003fc       0x14 C:\u-boot-2009.11-cloud\common\libcommon.a(fdt_support.o)
 .gnu.attributes
                0x0000000000000410       0x14 C:\u-boot-2009.11-cloud\common\libcommon.a(flash.o)
 .gnu.attributes
                0x0000000000000424       0x14 C:\u-boot-2009.11-cloud\common\libcommon.a(hush.o)
 .gnu.attributes
                0x0000000000000438       0x14 C:\u-boot-2009.11-cloud\common\libcommon.a(image.o)
 .gnu.attributes
                0x000000000000044c       0x14 C:\u-boot-2009.11-cloud\common\libcommon.a(main.o)
 .gnu.attributes
                0x0000000000000460       0x14 C:\u-boot-2009.11-cloud\common\libcommon.a(miiphyutil.o)
 .gnu.attributes
                0x0000000000000474       0x14 C:\u-boot-2009.11-cloud\common\libcommon.a(s_record.o)
 .gnu.attributes
                0x0000000000000488       0x14 C:\u-boot-2009.11-cloud\common\libcommon.a(serial.o)
 .gnu.attributes
                0x000000000000049c       0x14 C:\u-boot-2009.11-cloud\common\libcommon.a(stdio.o)
 .gnu.attributes
                0x00000000000004b0       0x14 C:\u-boot-2009.11-cloud\libfdt\libfdt.a(fdt.o)
 .gnu.attributes
                0x00000000000004c4       0x14 C:\u-boot-2009.11-cloud\libfdt\libfdt.a(fdt_ro.o)
 .gnu.attributes
                0x00000000000004d8       0x14 C:\u-boot-2009.11-cloud\libfdt\libfdt.a(fdt_rw.o)
 .gnu.attributes
                0x00000000000004ec       0x14 C:\u-boot-2009.11-cloud\libfdt\libfdt.a(fdt_strerror.o)
 .gnu.attributes
                0x0000000000000500       0x14 C:\u-boot-2009.11-cloud\libfdt\libfdt.a(fdt_wip.o)
 .gnu.attributes
                0x0000000000000514       0x14 C:\u-boot-2009.11-cloud\board\freescale\p1_p2_rdb\libp1_p2_rdb.a(p1_p2_rdb.o)
 .gnu.attributes
                0x0000000000000528       0x14 C:\u-boot-2009.11-cloud\board\freescale\p1_p2_rdb\libp1_p2_rdb.a(ddr.o)
 .gnu.attributes
                0x000000000000053c       0x14 C:\u-boot-2009.11-cloud\board\freescale\p1_p2_rdb\libp1_p2_rdb.a(law.o)
 .gnu.attributes
                0x0000000000000550       0x14 C:\u-boot-2009.11-cloud\board\freescale\p1_p2_rdb\libp1_p2_rdb.a(tlb.o)
 .gnu.attributes
                0x0000000000000564       0x14 C:\u-boot-2009.11-cloud\lib_generic\libgeneric.a(crc32.o)
 .gnu.attributes
                0x0000000000000578       0x14 C:\u-boot-2009.11-cloud\lib_generic\libgeneric.a(ctype.o)
 .gnu.attributes
                0x000000000000058c       0x14 C:\u-boot-2009.11-cloud\lib_generic\libgeneric.a(display_options.o)
 .gnu.attributes
                0x00000000000005a0       0x14 C:\u-boot-2009.11-cloud\lib_generic\libgeneric.a(gunzip.o)
 .gnu.attributes
                0x00000000000005b4       0x14 C:\u-boot-2009.11-cloud\lib_generic\libgeneric.a(lmb.o)
 .gnu.attributes
                0x00000000000005c8       0x14 C:\u-boot-2009.11-cloud\lib_generic\libgeneric.a(md5.o)
 .gnu.attributes
                0x00000000000005dc       0x14 C:\u-boot-2009.11-cloud\lib_generic\libgeneric.a(sha1.o)
 .gnu.attributes
                0x00000000000005f0       0x14 C:\u-boot-2009.11-cloud\lib_generic\libgeneric.a(string.o)
 .gnu.attributes
                0x0000000000000604       0x14 C:\u-boot-2009.11-cloud\lib_generic\libgeneric.a(strmhz.o)
 .gnu.attributes
                0x0000000000000618       0x14 C:\u-boot-2009.11-cloud\lib_generic\libgeneric.a(vsprintf.o)
 .gnu.attributes
                0x000000000000062c       0x14 C:\u-boot-2009.11-cloud\lib_generic\libgeneric.a(zlib.o)
 .gnu.attributes
                0x0000000000000640       0x14 C:\u-boot-2009.11-cloud\board\freescale\common\libfreescale.a(sys_eeprom.o)
 .gnu.attributes
                0x0000000000000654       0x14 C:\u-boot-2009.11-cloud\cpu\mpc85xx\libmpc85xx.a(ddr-gen3.o)
 .gnu.attributes
                0x0000000000000668       0x14 C:\u-boot-2009.11-cloud\cpu\mpc85xx\libmpc85xx.a(fdt.o)
 .gnu.attributes
                0x000000000000067c       0x14 C:\u-boot-2009.11-cloud\cpu\mpc85xx\libmpc85xx.a(cpu.o)
 .gnu.attributes
                0x0000000000000690       0x14 C:\u-boot-2009.11-cloud\cpu\mpc85xx\libmpc85xx.a(interrupts.o)
 .gnu.attributes
                0x00000000000006a4       0x14 C:\u-boot-2009.11-cloud\cpu\mpc85xx\libmpc85xx.a(speed.o)
 .gnu.attributes
                0x00000000000006b8       0x14 C:\u-boot-2009.11-cloud\lib_ppc\libppc.a(bootm.o)
 .gnu.attributes
                0x00000000000006cc       0x14 C:\u-boot-2009.11-cloud\lib_ppc\libppc.a(cache.o)
 .gnu.attributes
                0x00000000000006e0       0x14 C:\u-boot-2009.11-cloud\drivers\mtd\nand\libnand.a(nand_util.o)
 .gnu.attributes
                0x00000000000006f4       0x14 C:\u-boot-2009.11-cloud\drivers\mtd\spi\libspi_flash.a(spi_flash.o)
 .gnu.attributes
                0x0000000000000708       0x14 C:\u-boot-2009.11-cloud\drivers\mtd\spi\libspi_flash.a(spansion.o)
 .gnu.attributes
                0x000000000000071c       0x14 C:\u-boot-2009.11-cloud\drivers\net\libnet.a(tsec.o)
 .gnu.attributes
                0x0000000000000730       0x14 C:\u-boot-2009.11-cloud\drivers\net\libnet.a(vsc7385.o)
 .gnu.attributes
                0x0000000000000744       0x14 C:\u-boot-2009.11-cloud\cpu\mpc8xxx\lib8xxx.a(fdt.o)
 .gnu.attributes
                0x0000000000000758       0x14 C:\u-boot-2009.11-cloud\drivers\rtc\librtc.a(date.o)
 .gnu.attributes
                0x000000000000076c       0x14 C:\u-boot-2009.11-cloud\drivers\rtc\librtc.a(ds1337.o)
 .gnu.attributes
                0x0000000000000780       0x14 C:\u-boot-2009.11-cloud\drivers\serial\libserial.a(serial.o)
 .gnu.attributes
                0x0000000000000794       0x14 C:\u-boot-2009.11-cloud\drivers\serial\libserial.a(ns16550.o)
 .gnu.attributes
                0x00000000000007a8       0x14 C:\u-boot-2009.11-cloud\lib_generic\libgeneric.a(div64.o)
 .gnu.attributes
                0x00000000000007bc       0x14 C:\Cross_Tools\4.3.2\libgcc.a(_lshrdi3.o)
 .gnu.attributes
                0x00000000000007d0       0x14 C:\Cross_Tools\4.3.2\libgcc.a(_ashldi3.o)
 .gnu.attributes
                0x00000000000007e4       0x14 C:\Cross_Tools\4.3.2\libgcc.a(_ashrdi3.o)

.debug_line     0x0000000000000000     0xdccd
 .debug_line    0x0000000000000000      0x342 start.o
 .debug_line    0x0000000000000342       0x5c C:\u-boot-2009.11-cloud\cpu\mpc85xx\resetvec.o
 .debug_line    0x000000000000039e      0x13b C:\u-boot-2009.11-cloud\cpu\mpc85xx\libmpc85xx.a(cpu_init.o)
 .debug_line    0x00000000000004d9       0xe6 C:\u-boot-2009.11-cloud\cpu\mpc85xx\libmpc85xx.a(cpu_init_early.o)
 .debug_line    0x00000000000005bf      0x14d C:\u-boot-2009.11-cloud\cpu\mpc85xx\libmpc85xx.a(tlb.o)
 .debug_line    0x000000000000070c      0x1cd C:\u-boot-2009.11-cloud\cpu\mpc85xx\libmpc85xx.a(traps.o)
 .debug_line    0x00000000000008d9      0x1f0 C:\u-boot-2009.11-cloud\cpu\mpc85xx\libmpc85xx.a(mp.o)
 .debug_line    0x0000000000000ac9      0x129 C:\u-boot-2009.11-cloud\cpu\mpc85xx\libmpc85xx.a(release.o)
 .debug_line    0x0000000000000bf2      0x101 C:\u-boot-2009.11-cloud\lib_ppc\libppc.a(ppcstring.o)
 .debug_line    0x0000000000000cf3      0x20b C:\u-boot-2009.11-cloud\lib_ppc\libppc.a(board.o)
 .debug_line    0x0000000000000efe       0xb3 C:\u-boot-2009.11-cloud\lib_ppc\libppc.a(extable.o)
 .debug_line    0x0000000000000fb1      0x103 C:\u-boot-2009.11-cloud\lib_ppc\libppc.a(interrupts.o)
 .debug_line    0x00000000000010b4       0xa8 C:\u-boot-2009.11-cloud\lib_ppc\libppc.a(time.o)
 .debug_line    0x000000000000115c       0x67 C:\u-boot-2009.11-cloud\lib_ppc\libppc.a(ticks.o)
 .debug_line    0x00000000000011c3      0x1bc C:\u-boot-2009.11-cloud\net\libnet.a(eth.o)
 .debug_line    0x000000000000137f      0x458 C:\u-boot-2009.11-cloud\net\libnet.a(net.o)
 .debug_line    0x00000000000017d7      0x2e6 C:\u-boot-2009.11-cloud\net\libnet.a(nfs.o)
 .debug_line    0x0000000000001abd       0xe6 C:\u-boot-2009.11-cloud\net\libnet.a(rarp.o)
 .debug_line    0x0000000000001ba3      0x1ee C:\u-boot-2009.11-cloud\net\libnet.a(tftp.o)
 .debug_line    0x0000000000001d91      0x268 C:\u-boot-2009.11-cloud\net\libnet.a(bootp.o)
 .debug_line    0x0000000000001ff9      0x38a C:\u-boot-2009.11-cloud\drivers\i2c\libi2c.a(fsl_i2c.o)
 .debug_line    0x0000000000002383      0x23e C:\u-boot-2009.11-cloud\drivers\misc\libmisc.a(fsl_law.o)
 .debug_line    0x00000000000025c1      0x750 C:\u-boot-2009.11-cloud\drivers\mtd\libmtd.a(cfi_flash.o)
 .debug_line    0x0000000000002d11      0x187 C:\u-boot-2009.11-cloud\drivers\mtd\nand\libnand.a(nand.o)
 .debug_line    0x0000000000002e98      0xa29 C:\u-boot-2009.11-cloud\drivers\mtd\nand\libnand.a(nand_base.o)
 .debug_line    0x00000000000038c1      0x4bc C:\u-boot-2009.11-cloud\drivers\mtd\nand\libnand.a(nand_bbt.o)
 .debug_line    0x0000000000003d7d      0x1aa C:\u-boot-2009.11-cloud\drivers\mtd\nand\libnand.a(nand_ecc.o)
 .debug_line    0x0000000000003f27       0x88 C:\u-boot-2009.11-cloud\drivers\mtd\nand\libnand.a(nand_ids.o)
 .debug_line    0x0000000000003faf      0x44e C:\u-boot-2009.11-cloud\drivers\mtd\nand\libnand.a(fsl_elbc_nand.o)
 .debug_line    0x00000000000043fd      0x1bd C:\u-boot-2009.11-cloud\drivers\spi\libspi.a(fsl_espi.o)
 .debug_line    0x00000000000045ba       0xfe C:\u-boot-2009.11-cloud\cpu\mpc8xxx\lib8xxx.a(cpu.o)
 .debug_line    0x00000000000046b8      0x150 C:\u-boot-2009.11-cloud\common\libcommon.a(cmd_bdinfo.o)
 .debug_line    0x0000000000004808       0xc5 C:\u-boot-2009.11-cloud\common\libcommon.a(cmd_boot.o)
 .debug_line    0x00000000000048cd      0x3dd C:\u-boot-2009.11-cloud\common\libcommon.a(cmd_bootm.o)
 .debug_line    0x0000000000004caa      0x19d C:\u-boot-2009.11-cloud\common\libcommon.a(cmd_elf.o)
 .debug_line    0x0000000000004e47      0x30c C:\u-boot-2009.11-cloud\common\libcommon.a(cmd_fdt.o)
 .debug_line    0x0000000000005153      0x250 C:\u-boot-2009.11-cloud\common\libcommon.a(cmd_flash.o)
 .debug_line    0x00000000000053a3      0x103 C:\u-boot-2009.11-cloud\common\libcommon.a(cmd_itest.o)
 .debug_line    0x00000000000054a6      0x356 C:\u-boot-2009.11-cloud\common\libcommon.a(cmd_load.o)
 .debug_line    0x00000000000057fc       0x76 C:\u-boot-2009.11-cloud\common\libcommon.a(cmd_mac.o)
 .debug_line    0x0000000000005872      0x26c C:\u-boot-2009.11-cloud\common\libcommon.a(cmd_mem.o)
 .debug_line    0x0000000000005ade      0x1f9 C:\u-boot-2009.11-cloud\common\libcommon.a(cmd_mii.o)
 .debug_line    0x0000000000005cd7       0xc6 C:\u-boot-2009.11-cloud\common\libcommon.a(cmd_misc.o)
 .debug_line    0x0000000000005d9d       0x95 C:\u-boot-2009.11-cloud\common\libcommon.a(cmd_mp.o)
 .debug_line    0x0000000000005e32      0x314 C:\u-boot-2009.11-cloud\common\libcommon.a(cmd_nand.o)
 .debug_line    0x0000000000006146      0x139 C:\u-boot-2009.11-cloud\common\libcommon.a(cmd_net.o)
 .debug_line    0x000000000000627f      0x227 C:\u-boot-2009.11-cloud\common\libcommon.a(cmd_nvedit.o)
 .debug_line    0x00000000000064a6       0xd3 C:\u-boot-2009.11-cloud\common\libcommon.a(cmd_setexpr.o)
 .debug_line    0x0000000000006579      0x199 C:\u-boot-2009.11-cloud\common\libcommon.a(cmd_sf.o)
 .debug_line    0x0000000000006712      0x162 C:\u-boot-2009.11-cloud\common\libcommon.a(cmd_source.o)
 .debug_line    0x0000000000006874      0x1a7 C:\u-boot-2009.11-cloud\common\libcommon.a(command.o)
 .debug_line    0x0000000000006a1b      0x2c9 C:\u-boot-2009.11-cloud\common\libcommon.a(console.o)
 .debug_line    0x0000000000006ce4      0x332 C:\u-boot-2009.11-cloud\common\libcommon.a(dlmalloc.o)
 .debug_line    0x0000000000007016      0x169 C:\u-boot-2009.11-cloud\common\libcommon.a(env_common.o)
 .debug_line    0x000000000000717f      0x1a8 C:\u-boot-2009.11-cloud\common\libcommon.a(env_sf.o)
 .debug_line    0x0000000000007327       0xef C:\u-boot-2009.11-cloud\common\libcommon.a(exports.o)
 .debug_line    0x0000000000007416      0x310 C:\u-boot-2009.11-cloud\common\libcommon.a(fdt_support.o)
 .debug_line    0x0000000000007726      0x133 C:\u-boot-2009.11-cloud\common\libcommon.a(flash.o)
 .debug_line    0x0000000000007859      0x6a3 C:\u-boot-2009.11-cloud\common\libcommon.a(hush.o)
 .debug_line    0x0000000000007efc      0x71e C:\u-boot-2009.11-cloud\common\libcommon.a(image.o)
 .debug_line    0x000000000000861a      0x349 C:\u-boot-2009.11-cloud\common\libcommon.a(main.o)
 .debug_line    0x0000000000008963      0x1d5 C:\u-boot-2009.11-cloud\common\libcommon.a(miiphyutil.o)
 .debug_line    0x0000000000008b38       0xf8 C:\u-boot-2009.11-cloud\common\libcommon.a(s_record.o)
 .debug_line    0x0000000000008c30      0x18b C:\u-boot-2009.11-cloud\common\libcommon.a(serial.o)
 .debug_line    0x0000000000008dbb      0x17b C:\u-boot-2009.11-cloud\common\libcommon.a(stdio.o)
 .debug_line    0x0000000000008f36      0x18a C:\u-boot-2009.11-cloud\libfdt\libfdt.a(fdt.o)
 .debug_line    0x00000000000090c0      0x2a6 C:\u-boot-2009.11-cloud\libfdt\libfdt.a(fdt_ro.o)
 .debug_line    0x0000000000009366      0x33a C:\u-boot-2009.11-cloud\libfdt\libfdt.a(fdt_rw.o)
 .debug_line    0x00000000000096a0       0x66 C:\u-boot-2009.11-cloud\libfdt\libfdt.a(fdt_strerror.o)
 .debug_line    0x0000000000009706      0x158 C:\u-boot-2009.11-cloud\libfdt\libfdt.a(fdt_wip.o)
 .debug_line    0x000000000000985e      0x222 C:\u-boot-2009.11-cloud\board\freescale\p1_p2_rdb\libp1_p2_rdb.a(p1_p2_rdb.o)
 .debug_line    0x0000000000009a80      0x17b C:\u-boot-2009.11-cloud\board\freescale\p1_p2_rdb\libp1_p2_rdb.a(ddr.o)
 .debug_line    0x0000000000009bfb       0x94 C:\u-boot-2009.11-cloud\board\freescale\p1_p2_rdb\libp1_p2_rdb.a(law.o)
 .debug_line    0x0000000000009c8f       0x90 C:\u-boot-2009.11-cloud\board\freescale\p1_p2_rdb\libp1_p2_rdb.a(tlb.o)
 .debug_line    0x0000000000009d1f      0x133 C:\u-boot-2009.11-cloud\lib_generic\libgeneric.a(crc32.o)
 .debug_line    0x0000000000009e52       0x4c C:\u-boot-2009.11-cloud\lib_generic\libgeneric.a(ctype.o)
 .debug_line    0x0000000000009e9e      0x135 C:\u-boot-2009.11-cloud\lib_generic\libgeneric.a(display_options.o)
 .debug_line    0x0000000000009fd3       0xe9 C:\u-boot-2009.11-cloud\lib_generic\libgeneric.a(gunzip.o)
 .debug_line    0x000000000000a0bc      0x1ec C:\u-boot-2009.11-cloud\lib_generic\libgeneric.a(lmb.o)
 .debug_line    0x000000000000a2a8      0x39d C:\u-boot-2009.11-cloud\lib_generic\libgeneric.a(md5.o)
 .debug_line    0x000000000000a645      0x491 C:\u-boot-2009.11-cloud\lib_generic\libgeneric.a(sha1.o)
 .debug_line    0x000000000000aad6      0x156 C:\u-boot-2009.11-cloud\lib_generic\libgeneric.a(string.o)
 .debug_line    0x000000000000ac2c       0x67 C:\u-boot-2009.11-cloud\lib_generic\libgeneric.a(strmhz.o)
 .debug_line    0x000000000000ac93      0x2fa C:\u-boot-2009.11-cloud\lib_generic\libgeneric.a(vsprintf.o)
 .debug_line    0x000000000000af8d      0x53c C:\u-boot-2009.11-cloud\lib_generic\libgeneric.a(zlib.o)
 .debug_line    0x000000000000b4c9      0x1d1 C:\u-boot-2009.11-cloud\board\freescale\common\libfreescale.a(sys_eeprom.o)
 .debug_line    0x000000000000b69a      0x2f7 C:\u-boot-2009.11-cloud\cpu\mpc85xx\libmpc85xx.a(ddr-gen3.o)
 .debug_line    0x000000000000b991      0x2b9 C:\u-boot-2009.11-cloud\cpu\mpc85xx\libmpc85xx.a(fdt.o)
 .debug_line    0x000000000000bc4a      0x24d C:\u-boot-2009.11-cloud\cpu\mpc85xx\libmpc85xx.a(cpu.o)
 .debug_line    0x000000000000be97      0x134 C:\u-boot-2009.11-cloud\cpu\mpc85xx\libmpc85xx.a(interrupts.o)
 .debug_line    0x000000000000bfcb      0x1b5 C:\u-boot-2009.11-cloud\cpu\mpc85xx\libmpc85xx.a(speed.o)
 .debug_line    0x000000000000c180      0x1b1 C:\u-boot-2009.11-cloud\lib_ppc\libppc.a(bootm.o)
 .debug_line    0x000000000000c331       0x96 C:\u-boot-2009.11-cloud\lib_ppc\libppc.a(cache.o)
 .debug_line    0x000000000000c3c7      0x31a C:\u-boot-2009.11-cloud\drivers\mtd\nand\libnand.a(nand_util.o)
 .debug_line    0x000000000000c6e1      0x1a7 C:\u-boot-2009.11-cloud\drivers\mtd\spi\libspi_flash.a(spi_flash.o)
 .debug_line    0x000000000000c888      0x1fd C:\u-boot-2009.11-cloud\drivers\mtd\spi\libspi_flash.a(spansion.o)
 .debug_line    0x000000000000ca85      0x464 C:\u-boot-2009.11-cloud\drivers\net\libnet.a(tsec.o)
 .debug_line    0x000000000000cee9      0x153 C:\u-boot-2009.11-cloud\drivers\net\libnet.a(vsc7385.o)
 .debug_line    0x000000000000d03c       0xa2 C:\u-boot-2009.11-cloud\cpu\mpc8xxx\lib8xxx.a(fdt.o)
 .debug_line    0x000000000000d0de       0xcf C:\u-boot-2009.11-cloud\drivers\rtc\librtc.a(date.o)
 .debug_line    0x000000000000d1ad      0x1a2 C:\u-boot-2009.11-cloud\drivers\rtc\librtc.a(ds1337.o)
 .debug_line    0x000000000000d34f      0x25a C:\u-boot-2009.11-cloud\drivers\serial\libserial.a(serial.o)
 .debug_line    0x000000000000d5a9       0xba C:\u-boot-2009.11-cloud\drivers\serial\libserial.a(ns16550.o)
 .debug_line    0x000000000000d663       0xd9 C:\u-boot-2009.11-cloud\lib_generic\libgeneric.a(div64.o)
 .debug_line    0x000000000000d73c      0x1db C:\Cross_Tools\4.3.2\libgcc.a(_lshrdi3.o)
 .debug_line    0x000000000000d917      0x1db C:\Cross_Tools\4.3.2\libgcc.a(_ashldi3.o)
 .debug_line    0x000000000000daf2      0x1db C:\Cross_Tools\4.3.2\libgcc.a(_ashrdi3.o)

.debug_info     0x0000000000000000    0x456c1
 .debug_info    0x0000000000000000       0x5d start.o
 .debug_info    0x000000000000005d       0x70 C:\u-boot-2009.11-cloud\cpu\mpc85xx\resetvec.o
 .debug_info    0x00000000000000cd      0x95b C:\u-boot-2009.11-cloud\cpu\mpc85xx\libmpc85xx.a(cpu_init.o)
 .debug_info    0x0000000000000a28      0x486 C:\u-boot-2009.11-cloud\cpu\mpc85xx\libmpc85xx.a(cpu_init_early.o)
 .debug_info    0x0000000000000eae      0x88a C:\u-boot-2009.11-cloud\cpu\mpc85xx\libmpc85xx.a(tlb.o)
 .debug_info    0x0000000000001738     0x1be3 C:\u-boot-2009.11-cloud\cpu\mpc85xx\libmpc85xx.a(traps.o)
 .debug_info    0x000000000000331b     0x2578 C:\u-boot-2009.11-cloud\cpu\mpc85xx\libmpc85xx.a(mp.o)
 .debug_info    0x0000000000005893       0x6f C:\u-boot-2009.11-cloud\cpu\mpc85xx\libmpc85xx.a(release.o)
 .debug_info    0x0000000000005902       0x6d C:\u-boot-2009.11-cloud\lib_ppc\libppc.a(ppcstring.o)
 .debug_info    0x000000000000596f      0x589 C:\u-boot-2009.11-cloud\lib_ppc\libppc.a(board.o)
 .debug_info    0x0000000000005ef8      0x3ef C:\u-boot-2009.11-cloud\lib_ppc\libppc.a(extable.o)
 .debug_info    0x00000000000062e7      0x3c0 C:\u-boot-2009.11-cloud\lib_ppc\libppc.a(interrupts.o)
 .debug_info    0x00000000000066a7      0x14a C:\u-boot-2009.11-cloud\lib_ppc\libppc.a(time.o)
 .debug_info    0x00000000000067f1       0x69 C:\u-boot-2009.11-cloud\lib_ppc\libppc.a(ticks.o)
 .debug_info    0x000000000000685a      0x8e0 C:\u-boot-2009.11-cloud\net\libnet.a(eth.o)
 .debug_info    0x000000000000713a     0x1526 C:\u-boot-2009.11-cloud\net\libnet.a(net.o)
 .debug_info    0x0000000000008660      0xbaa C:\u-boot-2009.11-cloud\net\libnet.a(nfs.o)
 .debug_info    0x000000000000920a      0x251 C:\u-boot-2009.11-cloud\net\libnet.a(rarp.o)
 .debug_info    0x000000000000945b      0x473 C:\u-boot-2009.11-cloud\net\libnet.a(tftp.o)
 .debug_info    0x00000000000098ce      0x8b6 C:\u-boot-2009.11-cloud\net\libnet.a(bootp.o)
 .debug_info    0x000000000000a184      0xeea C:\u-boot-2009.11-cloud\drivers\i2c\libi2c.a(fsl_i2c.o)
 .debug_info    0x000000000000b06e      0xf93 C:\u-boot-2009.11-cloud\drivers\misc\libmisc.a(fsl_law.o)
 .debug_info    0x000000000000c001     0x2db1 C:\u-boot-2009.11-cloud\drivers\mtd\libmtd.a(cfi_flash.o)
 .debug_info    0x000000000000edb2     0x1379 C:\u-boot-2009.11-cloud\drivers\mtd\nand\libnand.a(nand.o)
 .debug_info    0x000000000001012b     0x38e5 C:\u-boot-2009.11-cloud\drivers\mtd\nand\libnand.a(nand_base.o)
 .debug_info    0x0000000000013a10     0x2072 C:\u-boot-2009.11-cloud\drivers\mtd\nand\libnand.a(nand_bbt.o)
 .debug_info    0x0000000000015a82      0x9ce C:\u-boot-2009.11-cloud\drivers\mtd\nand\libnand.a(nand_ecc.o)
 .debug_info    0x0000000000016450      0x152 C:\u-boot-2009.11-cloud\drivers\mtd\nand\libnand.a(nand_ids.o)
 .debug_info    0x00000000000165a2     0x23c4 C:\u-boot-2009.11-cloud\drivers\mtd\nand\libnand.a(fsl_elbc_nand.o)
 .debug_info    0x0000000000018966      0x550 C:\u-boot-2009.11-cloud\drivers\spi\libspi.a(fsl_espi.o)
 .debug_info    0x0000000000018eb6      0x425 C:\u-boot-2009.11-cloud\cpu\mpc8xxx\lib8xxx.a(cpu.o)
 .debug_info    0x00000000000192db      0x643 C:\u-boot-2009.11-cloud\common\libcommon.a(cmd_bdinfo.o)
 .debug_info    0x000000000001991e      0x23a C:\u-boot-2009.11-cloud\common\libcommon.a(cmd_boot.o)
 .debug_info    0x0000000000019b58     0x19dc C:\u-boot-2009.11-cloud\common\libcommon.a(cmd_bootm.o)
 .debug_info    0x000000000001b534      0x690 C:\u-boot-2009.11-cloud\common\libcommon.a(cmd_elf.o)
 .debug_info    0x000000000001bbc4      0xc36 C:\u-boot-2009.11-cloud\common\libcommon.a(cmd_fdt.o)
 .debug_info    0x000000000001c7fa      0x956 C:\u-boot-2009.11-cloud\common\libcommon.a(cmd_flash.o)
 .debug_info    0x000000000001d150      0x48d C:\u-boot-2009.11-cloud\common\libcommon.a(cmd_itest.o)
 .debug_info    0x000000000001d5dd      0xe00 C:\u-boot-2009.11-cloud\common\libcommon.a(cmd_load.o)
 .debug_info    0x000000000001e3dd      0x12b C:\u-boot-2009.11-cloud\common\libcommon.a(cmd_mac.o)
 .debug_info    0x000000000001e508      0xa22 C:\u-boot-2009.11-cloud\common\libcommon.a(cmd_mem.o)
 .debug_info    0x000000000001ef2a      0x74a C:\u-boot-2009.11-cloud\common\libcommon.a(cmd_mii.o)
 .debug_info    0x000000000001f674      0x1b4 C:\u-boot-2009.11-cloud\common\libcommon.a(cmd_misc.o)
 .debug_info    0x000000000001f828      0x19a C:\u-boot-2009.11-cloud\common\libcommon.a(cmd_mp.o)
 .debug_info    0x000000000001f9c2     0x18a9 C:\u-boot-2009.11-cloud\common\libcommon.a(cmd_nand.o)
 .debug_info    0x000000000002126b      0x580 C:\u-boot-2009.11-cloud\common\libcommon.a(cmd_net.o)
 .debug_info    0x00000000000217eb      0x9cd C:\u-boot-2009.11-cloud\common\libcommon.a(cmd_nvedit.o)
 .debug_info    0x00000000000221b8      0x1ce C:\u-boot-2009.11-cloud\common\libcommon.a(cmd_setexpr.o)
 .debug_info    0x0000000000022386      0x786 C:\u-boot-2009.11-cloud\common\libcommon.a(cmd_sf.o)
 .debug_info    0x0000000000022b0c      0x48f C:\u-boot-2009.11-cloud\common\libcommon.a(cmd_source.o)
 .debug_info    0x0000000000022f9b      0x6a5 C:\u-boot-2009.11-cloud\common\libcommon.a(command.o)
 .debug_info    0x0000000000023640      0xbef C:\u-boot-2009.11-cloud\common\libcommon.a(console.o)
 .debug_info    0x000000000002422f      0xd5a C:\u-boot-2009.11-cloud\common\libcommon.a(dlmalloc.o)
 .debug_info    0x0000000000024f89      0x48c C:\u-boot-2009.11-cloud\common\libcommon.a(env_common.o)
 .debug_info    0x0000000000025415      0x780 C:\u-boot-2009.11-cloud\common\libcommon.a(env_sf.o)
 .debug_info    0x0000000000025b95      0x3cf C:\u-boot-2009.11-cloud\common\libcommon.a(exports.o)
 .debug_info    0x0000000000025f64      0xfcc C:\u-boot-2009.11-cloud\common\libcommon.a(fdt_support.o)
 .debug_info    0x0000000000026f30      0x43c C:\u-boot-2009.11-cloud\common\libcommon.a(flash.o)
 .debug_info    0x000000000002736c     0x1b37 C:\u-boot-2009.11-cloud\common\libcommon.a(hush.o)
 .debug_info    0x0000000000028ea3     0x2b05 C:\u-boot-2009.11-cloud\common\libcommon.a(image.o)
 .debug_info    0x000000000002b9a8      0xe8d C:\u-boot-2009.11-cloud\common\libcommon.a(main.o)
 .debug_info    0x000000000002c835      0x6ef C:\u-boot-2009.11-cloud\common\libcommon.a(miiphyutil.o)
 .debug_info    0x000000000002cf24      0x1b0 C:\u-boot-2009.11-cloud\common\libcommon.a(s_record.o)
 .debug_info    0x000000000002d0d4      0x710 C:\u-boot-2009.11-cloud\common\libcommon.a(serial.o)
 .debug_info    0x000000000002d7e4      0x691 C:\u-boot-2009.11-cloud\common\libcommon.a(stdio.o)
 .debug_info    0x000000000002de75      0x400 C:\u-boot-2009.11-cloud\libfdt\libfdt.a(fdt.o)
 .debug_info    0x000000000002e275      0xe33 C:\u-boot-2009.11-cloud\libfdt\libfdt.a(fdt_ro.o)
 .debug_info    0x000000000002f0a8     0x158d C:\u-boot-2009.11-cloud\libfdt\libfdt.a(fdt_rw.o)
 .debug_info    0x0000000000030635      0x102 C:\u-boot-2009.11-cloud\libfdt\libfdt.a(fdt_strerror.o)
 .debug_info    0x0000000000030737      0x430 C:\u-boot-2009.11-cloud\libfdt\libfdt.a(fdt_wip.o)
 .debug_info    0x0000000000030b67     0x15e2 C:\u-boot-2009.11-cloud\board\freescale\p1_p2_rdb\libp1_p2_rdb.a(p1_p2_rdb.o)
 .debug_info    0x0000000000032149      0x685 C:\u-boot-2009.11-cloud\board\freescale\p1_p2_rdb\libp1_p2_rdb.a(ddr.o)
 .debug_info    0x00000000000327ce      0x1e0 C:\u-boot-2009.11-cloud\board\freescale\p1_p2_rdb\libp1_p2_rdb.a(law.o)
 .debug_info    0x00000000000329ae      0x10e C:\u-boot-2009.11-cloud\board\freescale\p1_p2_rdb\libp1_p2_rdb.a(tlb.o)
 .debug_info    0x0000000000032abc      0x1dc C:\u-boot-2009.11-cloud\lib_generic\libgeneric.a(crc32.o)
 .debug_info    0x0000000000032c98       0x4e C:\u-boot-2009.11-cloud\lib_generic\libgeneric.a(ctype.o)
 .debug_info    0x0000000000032ce6      0x261 C:\u-boot-2009.11-cloud\lib_generic\libgeneric.a(display_options.o)
 .debug_info    0x0000000000032f47      0x3f7 C:\u-boot-2009.11-cloud\lib_generic\libgeneric.a(gunzip.o)
 .debug_info    0x000000000003333e      0x8af C:\u-boot-2009.11-cloud\lib_generic\libgeneric.a(lmb.o)
 .debug_info    0x0000000000033bed      0x455 C:\u-boot-2009.11-cloud\lib_generic\libgeneric.a(md5.o)
 .debug_info    0x0000000000034042      0x491 C:\u-boot-2009.11-cloud\lib_generic\libgeneric.a(sha1.o)
 .debug_info    0x00000000000344d3      0x4e1 C:\u-boot-2009.11-cloud\lib_generic\libgeneric.a(string.o)
 .debug_info    0x00000000000349b4       0xd8 C:\u-boot-2009.11-cloud\lib_generic\libgeneric.a(strmhz.o)
 .debug_info    0x0000000000034a8c      0xc45 C:\u-boot-2009.11-cloud\lib_generic\libgeneric.a(vsprintf.o)
 .debug_info    0x00000000000356d1      0xfb9 C:\u-boot-2009.11-cloud\lib_generic\libgeneric.a(zlib.o)
 .debug_info    0x000000000003668a      0x658 C:\u-boot-2009.11-cloud\board\freescale\common\libfreescale.a(sys_eeprom.o)
 .debug_info    0x0000000000036ce2     0x177d C:\u-boot-2009.11-cloud\cpu\mpc85xx\libmpc85xx.a(ddr-gen3.o)
 .debug_info    0x000000000003845f      0xdf1 C:\u-boot-2009.11-cloud\cpu\mpc85xx\libmpc85xx.a(fdt.o)
 .debug_info    0x0000000000039250     0x2345 C:\u-boot-2009.11-cloud\cpu\mpc85xx\libmpc85xx.a(cpu.o)
 .debug_info    0x000000000003b595     0x18bd C:\u-boot-2009.11-cloud\cpu\mpc85xx\libmpc85xx.a(interrupts.o)
 .debug_info    0x000000000003ce52      0xc1e C:\u-boot-2009.11-cloud\cpu\mpc85xx\libmpc85xx.a(speed.o)
 .debug_info    0x000000000003da70      0xbb6 C:\u-boot-2009.11-cloud\lib_ppc\libppc.a(bootm.o)
 .debug_info    0x000000000003e626       0xdf C:\u-boot-2009.11-cloud\lib_ppc\libppc.a(cache.o)
 .debug_info    0x000000000003e705     0x15e6 C:\u-boot-2009.11-cloud\drivers\mtd\nand\libnand.a(nand_util.o)
 .debug_info    0x000000000003fceb      0x587 C:\u-boot-2009.11-cloud\drivers\mtd\spi\libspi_flash.a(spi_flash.o)
 .debug_info    0x0000000000040272      0x726 C:\u-boot-2009.11-cloud\drivers\mtd\spi\libspi_flash.a(spansion.o)
 .debug_info    0x0000000000040998     0x2206 C:\u-boot-2009.11-cloud\drivers\net\libnet.a(tsec.o)
 .debug_info    0x0000000000042b9e      0x28e C:\u-boot-2009.11-cloud\drivers\net\libnet.a(vsc7385.o)
 .debug_info    0x0000000000042e2c       0xec C:\u-boot-2009.11-cloud\cpu\mpc8xxx\lib8xxx.a(fdt.o)
 .debug_info    0x0000000000042f18      0x25f C:\u-boot-2009.11-cloud\drivers\rtc\librtc.a(date.o)
 .debug_info    0x0000000000043177      0x40a C:\u-boot-2009.11-cloud\drivers\rtc\librtc.a(ds1337.o)
 .debug_info    0x0000000000043581      0xf02 C:\u-boot-2009.11-cloud\drivers\serial\libserial.a(serial.o)
 .debug_info    0x0000000000044483      0x4a7 C:\u-boot-2009.11-cloud\drivers\serial\libserial.a(ns16550.o)
 .debug_info    0x000000000004492a      0x128 C:\u-boot-2009.11-cloud\lib_generic\libgeneric.a(div64.o)
 .debug_info    0x0000000000044a52      0x425 C:\Cross_Tools\4.3.2\libgcc.a(_lshrdi3.o)
 .debug_info    0x0000000000044e77      0x425 C:\Cross_Tools\4.3.2\libgcc.a(_ashldi3.o)
 .debug_info    0x000000000004529c      0x425 C:\Cross_Tools\4.3.2\libgcc.a(_ashrdi3.o)

.debug_abbrev   0x0000000000000000     0xcd79
 .debug_abbrev  0x0000000000000000       0x12 start.o
 .debug_abbrev  0x0000000000000012       0x14 C:\u-boot-2009.11-cloud\cpu\mpc85xx\resetvec.o
 .debug_abbrev  0x0000000000000026      0x18c C:\u-boot-2009.11-cloud\cpu\mpc85xx\libmpc85xx.a(cpu_init.o)
 .debug_abbrev  0x00000000000001b2      0x19a C:\u-boot-2009.11-cloud\cpu\mpc85xx\libmpc85xx.a(cpu_init_early.o)
 .debug_abbrev  0x000000000000034c      0x278 C:\u-boot-2009.11-cloud\cpu\mpc85xx\libmpc85xx.a(tlb.o)
 .debug_abbrev  0x00000000000005c4      0x24c C:\u-boot-2009.11-cloud\cpu\mpc85xx\libmpc85xx.a(traps.o)
 .debug_abbrev  0x0000000000000810      0x35f C:\u-boot-2009.11-cloud\cpu\mpc85xx\libmpc85xx.a(mp.o)
 .debug_abbrev  0x0000000000000b6f       0x14 C:\u-boot-2009.11-cloud\cpu\mpc85xx\libmpc85xx.a(release.o)
 .debug_abbrev  0x0000000000000b83       0x14 C:\u-boot-2009.11-cloud\lib_ppc\libppc.a(ppcstring.o)
 .debug_abbrev  0x0000000000000b97      0x249 C:\u-boot-2009.11-cloud\lib_ppc\libppc.a(board.o)
 .debug_abbrev  0x0000000000000de0      0x17e C:\u-boot-2009.11-cloud\lib_ppc\libppc.a(extable.o)
 .debug_abbrev  0x0000000000000f5e      0x1be C:\u-boot-2009.11-cloud\lib_ppc\libppc.a(interrupts.o)
 .debug_abbrev  0x000000000000111c       0xbf C:\u-boot-2009.11-cloud\lib_ppc\libppc.a(time.o)
 .debug_abbrev  0x00000000000011db       0x14 C:\u-boot-2009.11-cloud\lib_ppc\libppc.a(ticks.o)
 .debug_abbrev  0x00000000000011ef      0x2d3 C:\u-boot-2009.11-cloud\net\libnet.a(eth.o)
 .debug_abbrev  0x00000000000014c2      0x402 C:\u-boot-2009.11-cloud\net\libnet.a(net.o)
 .debug_abbrev  0x00000000000018c4      0x2e4 C:\u-boot-2009.11-cloud\net\libnet.a(nfs.o)
 .debug_abbrev  0x0000000000001ba8      0x11e C:\u-boot-2009.11-cloud\net\libnet.a(rarp.o)
 .debug_abbrev  0x0000000000001cc6      0x1c6 C:\u-boot-2009.11-cloud\net\libnet.a(tftp.o)
 .debug_abbrev  0x0000000000001e8c      0x2c4 C:\u-boot-2009.11-cloud\net\libnet.a(bootp.o)
 .debug_abbrev  0x0000000000002150      0x335 C:\u-boot-2009.11-cloud\drivers\i2c\libi2c.a(fsl_i2c.o)
 .debug_abbrev  0x0000000000002485      0x2e6 C:\u-boot-2009.11-cloud\drivers\misc\libmisc.a(fsl_law.o)
 .debug_abbrev  0x000000000000276b      0x3b1 C:\u-boot-2009.11-cloud\drivers\mtd\libmtd.a(cfi_flash.o)
 .debug_abbrev  0x0000000000002b1c      0x1e9 C:\u-boot-2009.11-cloud\drivers\mtd\nand\libnand.a(nand.o)
 .debug_abbrev  0x0000000000002d05      0x484 C:\u-boot-2009.11-cloud\drivers\mtd\nand\libnand.a(nand_base.o)
 .debug_abbrev  0x0000000000003189      0x350 C:\u-boot-2009.11-cloud\drivers\mtd\nand\libnand.a(nand_bbt.o)
 .debug_abbrev  0x00000000000034d9      0x1e9 C:\u-boot-2009.11-cloud\drivers\mtd\nand\libnand.a(nand_ecc.o)
 .debug_abbrev  0x00000000000036c2       0x8c C:\u-boot-2009.11-cloud\drivers\mtd\nand\libnand.a(nand_ids.o)
 .debug_abbrev  0x000000000000374e      0x3f8 C:\u-boot-2009.11-cloud\drivers\mtd\nand\libnand.a(fsl_elbc_nand.o)
 .debug_abbrev  0x0000000000003b46      0x216 C:\u-boot-2009.11-cloud\drivers\spi\libspi.a(fsl_espi.o)
 .debug_abbrev  0x0000000000003d5c      0x140 C:\u-boot-2009.11-cloud\cpu\mpc8xxx\lib8xxx.a(cpu.o)
 .debug_abbrev  0x0000000000003e9c      0x1c9 C:\u-boot-2009.11-cloud\common\libcommon.a(cmd_bdinfo.o)
 .debug_abbrev  0x0000000000004065       0xdf C:\u-boot-2009.11-cloud\common\libcommon.a(cmd_boot.o)
 .debug_abbrev  0x0000000000004144      0x34b C:\u-boot-2009.11-cloud\common\libcommon.a(cmd_bootm.o)
 .debug_abbrev  0x000000000000448f      0x1ce C:\u-boot-2009.11-cloud\common\libcommon.a(cmd_elf.o)
 .debug_abbrev  0x000000000000465d      0x315 C:\u-boot-2009.11-cloud\common\libcommon.a(cmd_fdt.o)
 .debug_abbrev  0x0000000000004972      0x1eb C:\u-boot-2009.11-cloud\common\libcommon.a(cmd_flash.o)
 .debug_abbrev  0x0000000000004b5d      0x197 C:\u-boot-2009.11-cloud\common\libcommon.a(cmd_itest.o)
 .debug_abbrev  0x0000000000004cf4      0x39c C:\u-boot-2009.11-cloud\common\libcommon.a(cmd_load.o)
 .debug_abbrev  0x0000000000005090       0x99 C:\u-boot-2009.11-cloud\common\libcommon.a(cmd_mac.o)
 .debug_abbrev  0x0000000000005129      0x1d0 C:\u-boot-2009.11-cloud\common\libcommon.a(cmd_mem.o)
 .debug_abbrev  0x00000000000052f9      0x22d C:\u-boot-2009.11-cloud\common\libcommon.a(cmd_mii.o)
 .debug_abbrev  0x0000000000005526       0xd0 C:\u-boot-2009.11-cloud\common\libcommon.a(cmd_misc.o)
 .debug_abbrev  0x00000000000055f6       0xd0 C:\u-boot-2009.11-cloud\common\libcommon.a(cmd_mp.o)
 .debug_abbrev  0x00000000000056c6      0x375 C:\u-boot-2009.11-cloud\common\libcommon.a(cmd_nand.o)
 .debug_abbrev  0x0000000000005a3b      0x1d0 C:\u-boot-2009.11-cloud\common\libcommon.a(cmd_net.o)
 .debug_abbrev  0x0000000000005c0b      0x22b C:\u-boot-2009.11-cloud\common\libcommon.a(cmd_nvedit.o)
 .debug_abbrev  0x0000000000005e36       0xf1 C:\u-boot-2009.11-cloud\common\libcommon.a(cmd_setexpr.o)
 .debug_abbrev  0x0000000000005f27      0x1fe C:\u-boot-2009.11-cloud\common\libcommon.a(cmd_sf.o)
 .debug_abbrev  0x0000000000006125      0x181 C:\u-boot-2009.11-cloud\common\libcommon.a(cmd_source.o)
 .debug_abbrev  0x00000000000062a6      0x1a5 C:\u-boot-2009.11-cloud\common\libcommon.a(command.o)
 .debug_abbrev  0x000000000000644b      0x303 C:\u-boot-2009.11-cloud\common\libcommon.a(console.o)
 .debug_abbrev  0x000000000000674e      0x24d C:\u-boot-2009.11-cloud\common\libcommon.a(dlmalloc.o)
 .debug_abbrev  0x000000000000699b      0x18d C:\u-boot-2009.11-cloud\common\libcommon.a(env_common.o)
 .debug_abbrev  0x0000000000006b28      0x233 C:\u-boot-2009.11-cloud\common\libcommon.a(env_sf.o)
 .debug_abbrev  0x0000000000006d5b      0x118 C:\u-boot-2009.11-cloud\common\libcommon.a(exports.o)
 .debug_abbrev  0x0000000000006e73      0x2ee C:\u-boot-2009.11-cloud\common\libcommon.a(fdt_support.o)
 .debug_abbrev  0x0000000000007161      0x171 C:\u-boot-2009.11-cloud\common\libcommon.a(flash.o)
 .debug_abbrev  0x00000000000072d2      0x392 C:\u-boot-2009.11-cloud\common\libcommon.a(hush.o)
 .debug_abbrev  0x0000000000007664      0x3d7 C:\u-boot-2009.11-cloud\common\libcommon.a(image.o)
 .debug_abbrev  0x0000000000007a3b      0x2f6 C:\u-boot-2009.11-cloud\common\libcommon.a(main.o)
 .debug_abbrev  0x0000000000007d31      0x1e3 C:\u-boot-2009.11-cloud\common\libcommon.a(miiphyutil.o)
 .debug_abbrev  0x0000000000007f14       0xfc C:\u-boot-2009.11-cloud\common\libcommon.a(s_record.o)
 .debug_abbrev  0x0000000000008010      0x1dc C:\u-boot-2009.11-cloud\common\libcommon.a(serial.o)
 .debug_abbrev  0x00000000000081ec      0x207 C:\u-boot-2009.11-cloud\common\libcommon.a(stdio.o)
 .debug_abbrev  0x00000000000083f3      0x172 C:\u-boot-2009.11-cloud\libfdt\libfdt.a(fdt.o)
 .debug_abbrev  0x0000000000008565      0x2ae C:\u-boot-2009.11-cloud\libfdt\libfdt.a(fdt_ro.o)
 .debug_abbrev  0x0000000000008813      0x2e4 C:\u-boot-2009.11-cloud\libfdt\libfdt.a(fdt_rw.o)
 .debug_abbrev  0x0000000000008af7       0xc0 C:\u-boot-2009.11-cloud\libfdt\libfdt.a(fdt_strerror.o)
 .debug_abbrev  0x0000000000008bb7      0x1d1 C:\u-boot-2009.11-cloud\libfdt\libfdt.a(fdt_wip.o)
 .debug_abbrev  0x0000000000008d88      0x285 C:\u-boot-2009.11-cloud\board\freescale\p1_p2_rdb\libp1_p2_rdb.a(p1_p2_rdb.o)
 .debug_abbrev  0x000000000000900d      0x19d C:\u-boot-2009.11-cloud\board\freescale\p1_p2_rdb\libp1_p2_rdb.a(ddr.o)
 .debug_abbrev  0x00000000000091aa       0x99 C:\u-boot-2009.11-cloud\board\freescale\p1_p2_rdb\libp1_p2_rdb.a(law.o)
 .debug_abbrev  0x0000000000009243       0x81 C:\u-boot-2009.11-cloud\board\freescale\p1_p2_rdb\libp1_p2_rdb.a(tlb.o)
 .debug_abbrev  0x00000000000092c4       0xb5 C:\u-boot-2009.11-cloud\lib_generic\libgeneric.a(crc32.o)
 .debug_abbrev  0x0000000000009379       0x49 C:\u-boot-2009.11-cloud\lib_generic\libgeneric.a(ctype.o)
 .debug_abbrev  0x00000000000093c2      0x10f C:\u-boot-2009.11-cloud\lib_generic\libgeneric.a(display_options.o)
 .debug_abbrev  0x00000000000094d1      0x135 C:\u-boot-2009.11-cloud\lib_generic\libgeneric.a(gunzip.o)
 .debug_abbrev  0x0000000000009606      0x309 C:\u-boot-2009.11-cloud\lib_generic\libgeneric.a(lmb.o)
 .debug_abbrev  0x000000000000990f      0x1da C:\u-boot-2009.11-cloud\lib_generic\libgeneric.a(md5.o)
 .debug_abbrev  0x0000000000009ae9      0x1bd C:\u-boot-2009.11-cloud\lib_generic\libgeneric.a(sha1.o)
 .debug_abbrev  0x0000000000009ca6      0x1de C:\u-boot-2009.11-cloud\lib_generic\libgeneric.a(string.o)
 .debug_abbrev  0x0000000000009e84       0x80 C:\u-boot-2009.11-cloud\lib_generic\libgeneric.a(strmhz.o)
 .debug_abbrev  0x0000000000009f04      0x31f C:\u-boot-2009.11-cloud\lib_generic\libgeneric.a(vsprintf.o)
 .debug_abbrev  0x000000000000a223      0x281 C:\u-boot-2009.11-cloud\lib_generic\libgeneric.a(zlib.o)
 .debug_abbrev  0x000000000000a4a4      0x239 C:\u-boot-2009.11-cloud\board\freescale\common\libfreescale.a(sys_eeprom.o)
 .debug_abbrev  0x000000000000a6dd      0x1db C:\u-boot-2009.11-cloud\cpu\mpc85xx\libmpc85xx.a(ddr-gen3.o)
 .debug_abbrev  0x000000000000a8b8      0x31f C:\u-boot-2009.11-cloud\cpu\mpc85xx\libmpc85xx.a(fdt.o)
 .debug_abbrev  0x000000000000abd7      0x2e3 C:\u-boot-2009.11-cloud\cpu\mpc85xx\libmpc85xx.a(cpu.o)
 .debug_abbrev  0x000000000000aeba      0x220 C:\u-boot-2009.11-cloud\cpu\mpc85xx\libmpc85xx.a(interrupts.o)
 .debug_abbrev  0x000000000000b0da      0x266 C:\u-boot-2009.11-cloud\cpu\mpc85xx\libmpc85xx.a(speed.o)
 .debug_abbrev  0x000000000000b340      0x2bf C:\u-boot-2009.11-cloud\lib_ppc\libppc.a(bootm.o)
 .debug_abbrev  0x000000000000b5ff       0x91 C:\u-boot-2009.11-cloud\lib_ppc\libppc.a(cache.o)
 .debug_abbrev  0x000000000000b690      0x29d C:\u-boot-2009.11-cloud\drivers\mtd\nand\libnand.a(nand_util.o)
 .debug_abbrev  0x000000000000b92d      0x172 C:\u-boot-2009.11-cloud\drivers\mtd\spi\libspi_flash.a(spi_flash.o)
 .debug_abbrev  0x000000000000ba9f      0x1fa C:\u-boot-2009.11-cloud\drivers\mtd\spi\libspi_flash.a(spansion.o)
 .debug_abbrev  0x000000000000bc99      0x40d C:\u-boot-2009.11-cloud\drivers\net\libnet.a(tsec.o)
 .debug_abbrev  0x000000000000c0a6      0x151 C:\u-boot-2009.11-cloud\drivers\net\libnet.a(vsc7385.o)
 .debug_abbrev  0x000000000000c1f7       0xb5 C:\u-boot-2009.11-cloud\cpu\mpc8xxx\lib8xxx.a(fdt.o)
 .debug_abbrev  0x000000000000c2ac       0xf4 C:\u-boot-2009.11-cloud\drivers\rtc\librtc.a(date.o)
 .debug_abbrev  0x000000000000c3a0      0x1c1 C:\u-boot-2009.11-cloud\drivers\rtc\librtc.a(ds1337.o)
 .debug_abbrev  0x000000000000c561      0x24c C:\u-boot-2009.11-cloud\drivers\serial\libserial.a(serial.o)
 .debug_abbrev  0x000000000000c7ad      0x101 C:\u-boot-2009.11-cloud\drivers\serial\libserial.a(ns16550.o)
 .debug_abbrev  0x000000000000c8ae       0xab C:\u-boot-2009.11-cloud\lib_generic\libgeneric.a(div64.o)
 .debug_abbrev  0x000000000000c959      0x160 C:\Cross_Tools\4.3.2\libgcc.a(_lshrdi3.o)
 .debug_abbrev  0x000000000000cab9      0x160 C:\Cross_Tools\4.3.2\libgcc.a(_ashldi3.o)
 .debug_abbrev  0x000000000000cc19      0x160 C:\Cross_Tools\4.3.2\libgcc.a(_ashrdi3.o)

.debug_aranges  0x0000000000000000      0xcc8
 .debug_aranges
                0x0000000000000000       0x28 start.o
 .debug_aranges
                0x0000000000000028       0x20 C:\u-boot-2009.11-cloud\cpu\mpc85xx\resetvec.o
 .debug_aranges
                0x0000000000000048       0x20 C:\u-boot-2009.11-cloud\cpu\mpc85xx\libmpc85xx.a(cpu_init.o)
 .debug_aranges
                0x0000000000000068       0x20 C:\u-boot-2009.11-cloud\cpu\mpc85xx\libmpc85xx.a(cpu_init_early.o)
 .debug_aranges
                0x0000000000000088       0x20 C:\u-boot-2009.11-cloud\cpu\mpc85xx\libmpc85xx.a(tlb.o)
 .debug_aranges
                0x00000000000000a8       0x20 C:\u-boot-2009.11-cloud\cpu\mpc85xx\libmpc85xx.a(traps.o)
 .debug_aranges
                0x00000000000000c8       0x20 C:\u-boot-2009.11-cloud\cpu\mpc85xx\libmpc85xx.a(mp.o)
 .debug_aranges
                0x00000000000000e8       0x20 C:\u-boot-2009.11-cloud\cpu\mpc85xx\libmpc85xx.a(release.o)
 .debug_aranges
                0x0000000000000108       0x20 C:\u-boot-2009.11-cloud\lib_ppc\libppc.a(ppcstring.o)
 .debug_aranges
                0x0000000000000128       0x20 C:\u-boot-2009.11-cloud\lib_ppc\libppc.a(board.o)
 .debug_aranges
                0x0000000000000148       0x20 C:\u-boot-2009.11-cloud\lib_ppc\libppc.a(extable.o)
 .debug_aranges
                0x0000000000000168       0x20 C:\u-boot-2009.11-cloud\lib_ppc\libppc.a(interrupts.o)
 .debug_aranges
                0x0000000000000188       0x20 C:\u-boot-2009.11-cloud\lib_ppc\libppc.a(time.o)
 .debug_aranges
                0x00000000000001a8       0x20 C:\u-boot-2009.11-cloud\lib_ppc\libppc.a(ticks.o)
 .debug_aranges
                0x00000000000001c8       0x20 C:\u-boot-2009.11-cloud\net\libnet.a(eth.o)
 .debug_aranges
                0x00000000000001e8       0x20 C:\u-boot-2009.11-cloud\net\libnet.a(net.o)
 .debug_aranges
                0x0000000000000208       0x20 C:\u-boot-2009.11-cloud\net\libnet.a(nfs.o)
 .debug_aranges
                0x0000000000000228       0x20 C:\u-boot-2009.11-cloud\net\libnet.a(rarp.o)
 .debug_aranges
                0x0000000000000248       0x20 C:\u-boot-2009.11-cloud\net\libnet.a(tftp.o)
 .debug_aranges
                0x0000000000000268       0x20 C:\u-boot-2009.11-cloud\net\libnet.a(bootp.o)
 .debug_aranges
                0x0000000000000288       0x20 C:\u-boot-2009.11-cloud\drivers\i2c\libi2c.a(fsl_i2c.o)
 .debug_aranges
                0x00000000000002a8       0x20 C:\u-boot-2009.11-cloud\drivers\misc\libmisc.a(fsl_law.o)
 .debug_aranges
                0x00000000000002c8       0x20 C:\u-boot-2009.11-cloud\drivers\mtd\libmtd.a(cfi_flash.o)
 .debug_aranges
                0x00000000000002e8       0x20 C:\u-boot-2009.11-cloud\drivers\mtd\nand\libnand.a(nand.o)
 .debug_aranges
                0x0000000000000308       0x20 C:\u-boot-2009.11-cloud\drivers\mtd\nand\libnand.a(nand_base.o)
 .debug_aranges
                0x0000000000000328       0x20 C:\u-boot-2009.11-cloud\drivers\mtd\nand\libnand.a(nand_bbt.o)
 .debug_aranges
                0x0000000000000348       0x20 C:\u-boot-2009.11-cloud\drivers\mtd\nand\libnand.a(nand_ecc.o)
 .debug_aranges
                0x0000000000000368       0x20 C:\u-boot-2009.11-cloud\drivers\mtd\nand\libnand.a(fsl_elbc_nand.o)
 .debug_aranges
                0x0000000000000388       0x20 C:\u-boot-2009.11-cloud\drivers\spi\libspi.a(fsl_espi.o)
 .debug_aranges
                0x00000000000003a8       0x20 C:\u-boot-2009.11-cloud\cpu\mpc8xxx\lib8xxx.a(cpu.o)
 .debug_aranges
                0x00000000000003c8       0x20 C:\u-boot-2009.11-cloud\common\libcommon.a(cmd_bdinfo.o)
 .debug_aranges
                0x00000000000003e8       0x20 C:\u-boot-2009.11-cloud\common\libcommon.a(cmd_boot.o)
 .debug_aranges
                0x0000000000000408       0x20 C:\u-boot-2009.11-cloud\common\libcommon.a(cmd_bootm.o)
 .debug_aranges
                0x0000000000000428       0x20 C:\u-boot-2009.11-cloud\common\libcommon.a(cmd_elf.o)
 .debug_aranges
                0x0000000000000448       0x20 C:\u-boot-2009.11-cloud\common\libcommon.a(cmd_fdt.o)
 .debug_aranges
                0x0000000000000468       0x20 C:\u-boot-2009.11-cloud\common\libcommon.a(cmd_flash.o)
 .debug_aranges
                0x0000000000000488       0x20 C:\u-boot-2009.11-cloud\common\libcommon.a(cmd_itest.o)
 .debug_aranges
                0x00000000000004a8       0x20 C:\u-boot-2009.11-cloud\common\libcommon.a(cmd_load.o)
 .debug_aranges
                0x00000000000004c8       0x20 C:\u-boot-2009.11-cloud\common\libcommon.a(cmd_mem.o)
 .debug_aranges
                0x00000000000004e8       0x20 C:\u-boot-2009.11-cloud\common\libcommon.a(cmd_mii.o)
 .debug_aranges
                0x0000000000000508       0x20 C:\u-boot-2009.11-cloud\common\libcommon.a(cmd_misc.o)
 .debug_aranges
                0x0000000000000528       0x20 C:\u-boot-2009.11-cloud\common\libcommon.a(cmd_mp.o)
 .debug_aranges
                0x0000000000000548       0x20 C:\u-boot-2009.11-cloud\common\libcommon.a(cmd_nand.o)
 .debug_aranges
                0x0000000000000568       0x20 C:\u-boot-2009.11-cloud\common\libcommon.a(cmd_net.o)
 .debug_aranges
                0x0000000000000588       0x20 C:\u-boot-2009.11-cloud\common\libcommon.a(cmd_nvedit.o)
 .debug_aranges
                0x00000000000005a8       0x20 C:\u-boot-2009.11-cloud\common\libcommon.a(cmd_setexpr.o)
 .debug_aranges
                0x00000000000005c8       0x20 C:\u-boot-2009.11-cloud\common\libcommon.a(cmd_sf.o)
 .debug_aranges
                0x00000000000005e8       0x20 C:\u-boot-2009.11-cloud\common\libcommon.a(cmd_source.o)
 .debug_aranges
                0x0000000000000608       0x20 C:\u-boot-2009.11-cloud\common\libcommon.a(command.o)
 .debug_aranges
                0x0000000000000628       0x20 C:\u-boot-2009.11-cloud\common\libcommon.a(console.o)
 .debug_aranges
                0x0000000000000648       0x20 C:\u-boot-2009.11-cloud\common\libcommon.a(dlmalloc.o)
 .debug_aranges
                0x0000000000000668       0x20 C:\u-boot-2009.11-cloud\common\libcommon.a(env_common.o)
 .debug_aranges
                0x0000000000000688       0x20 C:\u-boot-2009.11-cloud\common\libcommon.a(env_sf.o)
 .debug_aranges
                0x00000000000006a8       0x20 C:\u-boot-2009.11-cloud\common\libcommon.a(exports.o)
 .debug_aranges
                0x00000000000006c8       0x20 C:\u-boot-2009.11-cloud\common\libcommon.a(fdt_support.o)
 .debug_aranges
                0x00000000000006e8       0x20 C:\u-boot-2009.11-cloud\common\libcommon.a(flash.o)
 .debug_aranges
                0x0000000000000708       0x20 C:\u-boot-2009.11-cloud\common\libcommon.a(hush.o)
 .debug_aranges
                0x0000000000000728       0x20 C:\u-boot-2009.11-cloud\common\libcommon.a(image.o)
 .debug_aranges
                0x0000000000000748       0x20 C:\u-boot-2009.11-cloud\common\libcommon.a(main.o)
 .debug_aranges
                0x0000000000000768       0x20 C:\u-boot-2009.11-cloud\common\libcommon.a(miiphyutil.o)
 .debug_aranges
                0x0000000000000788       0x20 C:\u-boot-2009.11-cloud\common\libcommon.a(s_record.o)
 .debug_aranges
                0x00000000000007a8       0x20 C:\u-boot-2009.11-cloud\common\libcommon.a(serial.o)
 .debug_aranges
                0x00000000000007c8       0x20 C:\u-boot-2009.11-cloud\common\libcommon.a(stdio.o)
 .debug_aranges
                0x00000000000007e8       0x20 C:\u-boot-2009.11-cloud\libfdt\libfdt.a(fdt.o)
 .debug_aranges
                0x0000000000000808       0x20 C:\u-boot-2009.11-cloud\libfdt\libfdt.a(fdt_ro.o)
 .debug_aranges
                0x0000000000000828       0x20 C:\u-boot-2009.11-cloud\libfdt\libfdt.a(fdt_rw.o)
 .debug_aranges
                0x0000000000000848       0x20 C:\u-boot-2009.11-cloud\libfdt\libfdt.a(fdt_strerror.o)
 .debug_aranges
                0x0000000000000868       0x20 C:\u-boot-2009.11-cloud\libfdt\libfdt.a(fdt_wip.o)
 .debug_aranges
                0x0000000000000888       0x20 C:\u-boot-2009.11-cloud\board\freescale\p1_p2_rdb\libp1_p2_rdb.a(p1_p2_rdb.o)
 .debug_aranges
                0x00000000000008a8       0x20 C:\u-boot-2009.11-cloud\board\freescale\p1_p2_rdb\libp1_p2_rdb.a(ddr.o)
 .debug_aranges
                0x00000000000008c8       0x20 C:\u-boot-2009.11-cloud\lib_generic\libgeneric.a(crc32.o)
 .debug_aranges
                0x00000000000008e8       0x20 C:\u-boot-2009.11-cloud\lib_generic\libgeneric.a(display_options.o)
 .debug_aranges
                0x0000000000000908       0x20 C:\u-boot-2009.11-cloud\lib_generic\libgeneric.a(gunzip.o)
 .debug_aranges
                0x0000000000000928       0x20 C:\u-boot-2009.11-cloud\lib_generic\libgeneric.a(lmb.o)
 .debug_aranges
                0x0000000000000948       0x20 C:\u-boot-2009.11-cloud\lib_generic\libgeneric.a(md5.o)
 .debug_aranges
                0x0000000000000968       0x20 C:\u-boot-2009.11-cloud\lib_generic\libgeneric.a(sha1.o)
 .debug_aranges
                0x0000000000000988       0x20 C:\u-boot-2009.11-cloud\lib_generic\libgeneric.a(string.o)
 .debug_aranges
                0x00000000000009a8       0x20 C:\u-boot-2009.11-cloud\lib_generic\libgeneric.a(strmhz.o)
 .debug_aranges
                0x00000000000009c8       0x20 C:\u-boot-2009.11-cloud\lib_generic\libgeneric.a(vsprintf.o)
 .debug_aranges
                0x00000000000009e8       0x20 C:\u-boot-2009.11-cloud\lib_generic\libgeneric.a(zlib.o)
 .debug_aranges
                0x0000000000000a08       0x20 C:\u-boot-2009.11-cloud\board\freescale\common\libfreescale.a(sys_eeprom.o)
 .debug_aranges
                0x0000000000000a28       0x20 C:\u-boot-2009.11-cloud\cpu\mpc85xx\libmpc85xx.a(ddr-gen3.o)
 .debug_aranges
                0x0000000000000a48       0x20 C:\u-boot-2009.11-cloud\cpu\mpc85xx\libmpc85xx.a(fdt.o)
 .debug_aranges
                0x0000000000000a68       0x20 C:\u-boot-2009.11-cloud\cpu\mpc85xx\libmpc85xx.a(cpu.o)
 .debug_aranges
                0x0000000000000a88       0x20 C:\u-boot-2009.11-cloud\cpu\mpc85xx\libmpc85xx.a(interrupts.o)
 .debug_aranges
                0x0000000000000aa8       0x20 C:\u-boot-2009.11-cloud\cpu\mpc85xx\libmpc85xx.a(speed.o)
 .debug_aranges
                0x0000000000000ac8       0x20 C:\u-boot-2009.11-cloud\lib_ppc\libppc.a(bootm.o)
 .debug_aranges
                0x0000000000000ae8       0x20 C:\u-boot-2009.11-cloud\lib_ppc\libppc.a(cache.o)
 .debug_aranges
                0x0000000000000b08       0x20 C:\u-boot-2009.11-cloud\drivers\mtd\nand\libnand.a(nand_util.o)
 .debug_aranges
                0x0000000000000b28       0x20 C:\u-boot-2009.11-cloud\drivers\mtd\spi\libspi_flash.a(spi_flash.o)
 .debug_aranges
                0x0000000000000b48       0x20 C:\u-boot-2009.11-cloud\drivers\mtd\spi\libspi_flash.a(spansion.o)
 .debug_aranges
                0x0000000000000b68       0x20 C:\u-boot-2009.11-cloud\drivers\net\libnet.a(tsec.o)
 .debug_aranges
                0x0000000000000b88       0x20 C:\u-boot-2009.11-cloud\drivers\net\libnet.a(vsc7385.o)
 .debug_aranges
                0x0000000000000ba8       0x20 C:\u-boot-2009.11-cloud\cpu\mpc8xxx\lib8xxx.a(fdt.o)
 .debug_aranges
                0x0000000000000bc8       0x20 C:\u-boot-2009.11-cloud\drivers\rtc\librtc.a(date.o)
 .debug_aranges
                0x0000000000000be8       0x20 C:\u-boot-2009.11-cloud\drivers\rtc\librtc.a(ds1337.o)
 .debug_aranges
                0x0000000000000c08       0x20 C:\u-boot-2009.11-cloud\drivers\serial\libserial.a(serial.o)
 .debug_aranges
                0x0000000000000c28       0x20 C:\u-boot-2009.11-cloud\drivers\serial\libserial.a(ns16550.o)
 .debug_aranges
                0x0000000000000c48       0x20 C:\u-boot-2009.11-cloud\lib_generic\libgeneric.a(div64.o)
 .debug_aranges
                0x0000000000000c68       0x20 C:\Cross_Tools\4.3.2\libgcc.a(_lshrdi3.o)
 .debug_aranges
                0x0000000000000c88       0x20 C:\Cross_Tools\4.3.2\libgcc.a(_ashldi3.o)
 .debug_aranges
                0x0000000000000ca8       0x20 C:\Cross_Tools\4.3.2\libgcc.a(_ashrdi3.o)

.debug_ranges   0x0000000000000000     0x2cf0
 .debug_ranges  0x0000000000000000       0x20 start.o
 .debug_ranges  0x0000000000000020       0x20 C:\u-boot-2009.11-cloud\cpu\mpc85xx\libmpc85xx.a(tlb.o)
 .debug_ranges  0x0000000000000040       0x18 C:\u-boot-2009.11-cloud\cpu\mpc85xx\libmpc85xx.a(traps.o)
 .debug_ranges  0x0000000000000058       0x30 C:\u-boot-2009.11-cloud\cpu\mpc85xx\libmpc85xx.a(mp.o)
 .debug_ranges  0x0000000000000088       0x48 C:\u-boot-2009.11-cloud\net\libnet.a(eth.o)
 .debug_ranges  0x00000000000000d0       0xd8 C:\u-boot-2009.11-cloud\net\libnet.a(net.o)
 .debug_ranges  0x00000000000001a8       0x60 C:\u-boot-2009.11-cloud\net\libnet.a(nfs.o)
 .debug_ranges  0x0000000000000208      0x1a8 C:\u-boot-2009.11-cloud\net\libnet.a(bootp.o)
 .debug_ranges  0x00000000000003b0       0xd8 C:\u-boot-2009.11-cloud\drivers\i2c\libi2c.a(fsl_i2c.o)
 .debug_ranges  0x0000000000000488       0xf0 C:\u-boot-2009.11-cloud\drivers\misc\libmisc.a(fsl_law.o)
 .debug_ranges  0x0000000000000578      0x7a8 C:\u-boot-2009.11-cloud\drivers\mtd\libmtd.a(cfi_flash.o)
 .debug_ranges  0x0000000000000d20       0x30 C:\u-boot-2009.11-cloud\drivers\mtd\nand\libnand.a(nand.o)
 .debug_ranges  0x0000000000000d50      0x1a0 C:\u-boot-2009.11-cloud\drivers\mtd\nand\libnand.a(nand_base.o)
 .debug_ranges  0x0000000000000ef0      0x218 C:\u-boot-2009.11-cloud\drivers\mtd\nand\libnand.a(nand_bbt.o)
 .debug_ranges  0x0000000000001108       0xd8 C:\u-boot-2009.11-cloud\drivers\mtd\nand\libnand.a(fsl_elbc_nand.o)
 .debug_ranges  0x00000000000011e0       0x30 C:\u-boot-2009.11-cloud\common\libcommon.a(cmd_bdinfo.o)
 .debug_ranges  0x0000000000001210       0x70 C:\u-boot-2009.11-cloud\common\libcommon.a(cmd_bootm.o)
 .debug_ranges  0x0000000000001280       0x48 C:\u-boot-2009.11-cloud\common\libcommon.a(cmd_elf.o)
 .debug_ranges  0x00000000000012c8       0x70 C:\u-boot-2009.11-cloud\common\libcommon.a(cmd_fdt.o)
 .debug_ranges  0x0000000000001338       0x20 C:\u-boot-2009.11-cloud\common\libcommon.a(cmd_flash.o)
 .debug_ranges  0x0000000000001358       0x18 C:\u-boot-2009.11-cloud\common\libcommon.a(cmd_itest.o)
 .debug_ranges  0x0000000000001370       0xc0 C:\u-boot-2009.11-cloud\common\libcommon.a(cmd_load.o)
 .debug_ranges  0x0000000000001430       0x40 C:\u-boot-2009.11-cloud\common\libcommon.a(cmd_mem.o)
 .debug_ranges  0x0000000000001470      0x108 C:\u-boot-2009.11-cloud\common\libcommon.a(cmd_mii.o)
 .debug_ranges  0x0000000000001578       0x68 C:\u-boot-2009.11-cloud\common\libcommon.a(cmd_nand.o)
 .debug_ranges  0x00000000000015e0       0x48 C:\u-boot-2009.11-cloud\common\libcommon.a(cmd_nvedit.o)
 .debug_ranges  0x0000000000001628       0x18 C:\u-boot-2009.11-cloud\common\libcommon.a(cmd_sf.o)
 .debug_ranges  0x0000000000001640       0x48 C:\u-boot-2009.11-cloud\common\libcommon.a(command.o)
 .debug_ranges  0x0000000000001688       0x30 C:\u-boot-2009.11-cloud\common\libcommon.a(dlmalloc.o)
 .debug_ranges  0x00000000000016b8       0x60 C:\u-boot-2009.11-cloud\common\libcommon.a(fdt_support.o)
 .debug_ranges  0x0000000000001718       0x38 C:\u-boot-2009.11-cloud\common\libcommon.a(flash.o)
 .debug_ranges  0x0000000000001750      0x460 C:\u-boot-2009.11-cloud\common\libcommon.a(hush.o)
 .debug_ranges  0x0000000000001bb0       0x40 C:\u-boot-2009.11-cloud\common\libcommon.a(image.o)
 .debug_ranges  0x0000000000001bf0      0x1c0 C:\u-boot-2009.11-cloud\common\libcommon.a(main.o)
 .debug_ranges  0x0000000000001db0       0x58 C:\u-boot-2009.11-cloud\common\libcommon.a(miiphyutil.o)
 .debug_ranges  0x0000000000001e08       0x48 C:\u-boot-2009.11-cloud\common\libcommon.a(stdio.o)
 .debug_ranges  0x0000000000001e50       0xa8 C:\u-boot-2009.11-cloud\libfdt\libfdt.a(fdt_ro.o)
 .debug_ranges  0x0000000000001ef8      0x398 C:\u-boot-2009.11-cloud\libfdt\libfdt.a(fdt_rw.o)
 .debug_ranges  0x0000000000002290       0x48 C:\u-boot-2009.11-cloud\libfdt\libfdt.a(fdt_wip.o)
 .debug_ranges  0x00000000000022d8      0x100 C:\u-boot-2009.11-cloud\lib_generic\libgeneric.a(lmb.o)
 .debug_ranges  0x00000000000023d8       0x50 C:\u-boot-2009.11-cloud\lib_generic\libgeneric.a(md5.o)
 .debug_ranges  0x0000000000002428      0x150 C:\u-boot-2009.11-cloud\lib_generic\libgeneric.a(vsprintf.o)
 .debug_ranges  0x0000000000002578       0x28 C:\u-boot-2009.11-cloud\lib_generic\libgeneric.a(zlib.o)
 .debug_ranges  0x00000000000025a0       0x40 C:\u-boot-2009.11-cloud\board\freescale\common\libfreescale.a(sys_eeprom.o)
 .debug_ranges  0x00000000000025e0       0xc0 C:\u-boot-2009.11-cloud\cpu\mpc85xx\libmpc85xx.a(fdt.o)
 .debug_ranges  0x00000000000026a0       0x28 C:\u-boot-2009.11-cloud\cpu\mpc85xx\libmpc85xx.a(cpu.o)
 .debug_ranges  0x00000000000026c8       0x18 C:\u-boot-2009.11-cloud\cpu\mpc85xx\libmpc85xx.a(interrupts.o)
 .debug_ranges  0x00000000000026e0       0x18 C:\u-boot-2009.11-cloud\cpu\mpc85xx\libmpc85xx.a(speed.o)
 .debug_ranges  0x00000000000026f8       0x30 C:\u-boot-2009.11-cloud\lib_ppc\libppc.a(bootm.o)
 .debug_ranges  0x0000000000002728      0x108 C:\u-boot-2009.11-cloud\drivers\mtd\nand\libnand.a(nand_util.o)
 .debug_ranges  0x0000000000002830       0xd0 C:\u-boot-2009.11-cloud\drivers\net\libnet.a(tsec.o)
 .debug_ranges  0x0000000000002900       0xa8 C:\u-boot-2009.11-cloud\drivers\net\libnet.a(vsc7385.o)
 .debug_ranges  0x00000000000029a8       0x20 C:\u-boot-2009.11-cloud\cpu\mpc8xxx\lib8xxx.a(fdt.o)
 .debug_ranges  0x00000000000029c8      0x148 C:\u-boot-2009.11-cloud\drivers\rtc\librtc.a(ds1337.o)
 .debug_ranges  0x0000000000002b10      0x1e0 C:\u-boot-2009.11-cloud\drivers\serial\libserial.a(serial.o)

.debug_frame    0x0000000000000000     0x9a28
 .debug_frame   0x0000000000000000       0x94 C:\u-boot-2009.11-cloud\cpu\mpc85xx\libmpc85xx.a(cpu_init.o)
 .debug_frame   0x0000000000000094       0x3c C:\u-boot-2009.11-cloud\cpu\mpc85xx\libmpc85xx.a(cpu_init_early.o)
 .debug_frame   0x00000000000000d0       0xe4 C:\u-boot-2009.11-cloud\cpu\mpc85xx\libmpc85xx.a(tlb.o)
 .debug_frame   0x00000000000001b4      0x230 C:\u-boot-2009.11-cloud\cpu\mpc85xx\libmpc85xx.a(traps.o)
 .debug_frame   0x00000000000003e4      0x178 C:\u-boot-2009.11-cloud\cpu\mpc85xx\libmpc85xx.a(mp.o)
 .debug_frame   0x000000000000055c      0x180 C:\u-boot-2009.11-cloud\lib_ppc\libppc.a(board.o)
 .debug_frame   0x00000000000006dc       0x3c C:\u-boot-2009.11-cloud\lib_ppc\libppc.a(extable.o)
 .debug_frame   0x0000000000000718      0x10c C:\u-boot-2009.11-cloud\lib_ppc\libppc.a(interrupts.o)
 .debug_frame   0x0000000000000824       0xa8 C:\u-boot-2009.11-cloud\lib_ppc\libppc.a(time.o)
 .debug_frame   0x00000000000008cc      0x360 C:\u-boot-2009.11-cloud\net\libnet.a(eth.o)
 .debug_frame   0x0000000000000c2c      0x56c C:\u-boot-2009.11-cloud\net\libnet.a(net.o)
 .debug_frame   0x0000000000001198      0x374 C:\u-boot-2009.11-cloud\net\libnet.a(nfs.o)
 .debug_frame   0x000000000000150c       0x98 C:\u-boot-2009.11-cloud\net\libnet.a(rarp.o)
 .debug_frame   0x00000000000015a4       0xd8 C:\u-boot-2009.11-cloud\net\libnet.a(tftp.o)
 .debug_frame   0x000000000000167c      0x124 C:\u-boot-2009.11-cloud\net\libnet.a(bootp.o)
 .debug_frame   0x00000000000017a0      0x258 C:\u-boot-2009.11-cloud\drivers\i2c\libi2c.a(fsl_i2c.o)
 .debug_frame   0x00000000000019f8      0x174 C:\u-boot-2009.11-cloud\drivers\misc\libmisc.a(fsl_law.o)
 .debug_frame   0x0000000000001b6c      0x344 C:\u-boot-2009.11-cloud\drivers\mtd\libmtd.a(cfi_flash.o)
 .debug_frame   0x0000000000001eb0       0x40 C:\u-boot-2009.11-cloud\drivers\mtd\nand\libnand.a(nand.o)
 .debug_frame   0x0000000000001ef0      0xaac C:\u-boot-2009.11-cloud\drivers\mtd\nand\libnand.a(nand_base.o)
 .debug_frame   0x000000000000299c      0x318 C:\u-boot-2009.11-cloud\drivers\mtd\nand\libnand.a(nand_bbt.o)
 .debug_frame   0x0000000000002cb4       0x4c C:\u-boot-2009.11-cloud\drivers\mtd\nand\libnand.a(nand_ecc.o)
 .debug_frame   0x0000000000002d00      0x214 C:\u-boot-2009.11-cloud\drivers\mtd\nand\libnand.a(fsl_elbc_nand.o)
 .debug_frame   0x0000000000002f14       0xe0 C:\u-boot-2009.11-cloud\drivers\spi\libspi.a(fsl_espi.o)
 .debug_frame   0x0000000000002ff4       0xa4 C:\u-boot-2009.11-cloud\cpu\mpc8xxx\lib8xxx.a(cpu.o)
 .debug_frame   0x0000000000003098       0x6c C:\u-boot-2009.11-cloud\common\libcommon.a(cmd_bdinfo.o)
 .debug_frame   0x0000000000003104       0x60 C:\u-boot-2009.11-cloud\common\libcommon.a(cmd_boot.o)
 .debug_frame   0x0000000000003164      0x2c4 C:\u-boot-2009.11-cloud\common\libcommon.a(cmd_bootm.o)
 .debug_frame   0x0000000000003428      0x108 C:\u-boot-2009.11-cloud\common\libcommon.a(cmd_elf.o)
 .debug_frame   0x0000000000003530      0x100 C:\u-boot-2009.11-cloud\common\libcommon.a(cmd_fdt.o)
 .debug_frame   0x0000000000003630      0x1cc C:\u-boot-2009.11-cloud\common\libcommon.a(cmd_flash.o)
 .debug_frame   0x00000000000037fc       0xa4 C:\u-boot-2009.11-cloud\common\libcommon.a(cmd_itest.o)
 .debug_frame   0x00000000000038a0      0x32c C:\u-boot-2009.11-cloud\common\libcommon.a(cmd_load.o)
 .debug_frame   0x0000000000003bcc      0x24c C:\u-boot-2009.11-cloud\common\libcommon.a(cmd_mem.o)
 .debug_frame   0x0000000000003e18       0xf4 C:\u-boot-2009.11-cloud\common\libcommon.a(cmd_mii.o)
 .debug_frame   0x0000000000003f0c       0x44 C:\u-boot-2009.11-cloud\common\libcommon.a(cmd_misc.o)
 .debug_frame   0x0000000000003f50       0x44 C:\u-boot-2009.11-cloud\common\libcommon.a(cmd_mp.o)
 .debug_frame   0x0000000000003f94      0x13c C:\u-boot-2009.11-cloud\common\libcommon.a(cmd_nand.o)
 .debug_frame   0x00000000000040d0       0xbc C:\u-boot-2009.11-cloud\common\libcommon.a(cmd_net.o)
 .debug_frame   0x000000000000418c      0x248 C:\u-boot-2009.11-cloud\common\libcommon.a(cmd_nvedit.o)
 .debug_frame   0x00000000000043d4       0x40 C:\u-boot-2009.11-cloud\common\libcommon.a(cmd_setexpr.o)
 .debug_frame   0x0000000000004414       0x4c C:\u-boot-2009.11-cloud\common\libcommon.a(cmd_sf.o)
 .debug_frame   0x0000000000004460       0x70 C:\u-boot-2009.11-cloud\common\libcommon.a(cmd_source.o)
 .debug_frame   0x00000000000044d0      0x22c C:\u-boot-2009.11-cloud\common\libcommon.a(command.o)
 .debug_frame   0x00000000000046fc      0x3d8 C:\u-boot-2009.11-cloud\common\libcommon.a(console.o)
 .debug_frame   0x0000000000004ad4      0x260 C:\u-boot-2009.11-cloud\common\libcommon.a(dlmalloc.o)
 .debug_frame   0x0000000000004d34      0x118 C:\u-boot-2009.11-cloud\common\libcommon.a(env_common.o)
 .debug_frame   0x0000000000004e4c       0xac C:\u-boot-2009.11-cloud\common\libcommon.a(env_sf.o)
 .debug_frame   0x0000000000004ef8       0x5c C:\u-boot-2009.11-cloud\common\libcommon.a(exports.o)
 .debug_frame   0x0000000000004f54      0x368 C:\u-boot-2009.11-cloud\common\libcommon.a(fdt_support.o)
 .debug_frame   0x00000000000052bc       0xcc C:\u-boot-2009.11-cloud\common\libcommon.a(flash.o)
 .debug_frame   0x0000000000005388      0x574 C:\u-boot-2009.11-cloud\common\libcommon.a(hush.o)
 .debug_frame   0x00000000000058fc      0xb70 C:\u-boot-2009.11-cloud\common\libcommon.a(image.o)
 .debug_frame   0x000000000000646c      0x200 C:\u-boot-2009.11-cloud\common\libcommon.a(main.o)
 .debug_frame   0x000000000000666c      0x26c C:\u-boot-2009.11-cloud\common\libcommon.a(miiphyutil.o)
 .debug_frame   0x00000000000068d8       0x60 C:\u-boot-2009.11-cloud\common\libcommon.a(s_record.o)
 .debug_frame   0x0000000000006938      0x22c C:\u-boot-2009.11-cloud\common\libcommon.a(serial.o)
 .debug_frame   0x0000000000006b64       0xf8 C:\u-boot-2009.11-cloud\common\libcommon.a(stdio.o)
 .debug_frame   0x0000000000006c5c      0x13c C:\u-boot-2009.11-cloud\libfdt\libfdt.a(fdt.o)
 .debug_frame   0x0000000000006d98      0x458 C:\u-boot-2009.11-cloud\libfdt\libfdt.a(fdt_ro.o)
 .debug_frame   0x00000000000071f0      0x2f0 C:\u-boot-2009.11-cloud\libfdt\libfdt.a(fdt_rw.o)
 .debug_frame   0x00000000000074e0       0x3c C:\u-boot-2009.11-cloud\libfdt\libfdt.a(fdt_strerror.o)
 .debug_frame   0x000000000000751c       0xcc C:\u-boot-2009.11-cloud\libfdt\libfdt.a(fdt_wip.o)
 .debug_frame   0x00000000000075e8      0x104 C:\u-boot-2009.11-cloud\board\freescale\p1_p2_rdb\libp1_p2_rdb.a(p1_p2_rdb.o)
 .debug_frame   0x00000000000076ec       0x4c C:\u-boot-2009.11-cloud\board\freescale\p1_p2_rdb\libp1_p2_rdb.a(ddr.o)
 .debug_frame   0x0000000000007738       0x94 C:\u-boot-2009.11-cloud\lib_generic\libgeneric.a(crc32.o)
 .debug_frame   0x00000000000077cc       0xc8 C:\u-boot-2009.11-cloud\lib_generic\libgeneric.a(display_options.o)
 .debug_frame   0x0000000000007894       0xd0 C:\u-boot-2009.11-cloud\lib_generic\libgeneric.a(gunzip.o)
 .debug_frame   0x0000000000007964      0x150 C:\u-boot-2009.11-cloud\lib_generic\libgeneric.a(lmb.o)
 .debug_frame   0x0000000000007ab4      0x124 C:\u-boot-2009.11-cloud\lib_generic\libgeneric.a(md5.o)
 .debug_frame   0x0000000000007bd8      0x188 C:\u-boot-2009.11-cloud\lib_generic\libgeneric.a(sha1.o)
 .debug_frame   0x0000000000007d60      0x19c C:\u-boot-2009.11-cloud\lib_generic\libgeneric.a(string.o)
 .debug_frame   0x0000000000007efc       0x40 C:\u-boot-2009.11-cloud\lib_generic\libgeneric.a(strmhz.o)
 .debug_frame   0x0000000000007f3c      0x1dc C:\u-boot-2009.11-cloud\lib_generic\libgeneric.a(vsprintf.o)
 .debug_frame   0x0000000000008118      0x22c C:\u-boot-2009.11-cloud\lib_generic\libgeneric.a(zlib.o)
 .debug_frame   0x0000000000008344       0xe8 C:\u-boot-2009.11-cloud\board\freescale\common\libfreescale.a(sys_eeprom.o)
 .debug_frame   0x000000000000842c       0x44 C:\u-boot-2009.11-cloud\cpu\mpc85xx\libmpc85xx.a(ddr-gen3.o)
 .debug_frame   0x0000000000008470      0x1b4 C:\u-boot-2009.11-cloud\cpu\mpc85xx\libmpc85xx.a(fdt.o)
 .debug_frame   0x0000000000008624       0xc0 C:\u-boot-2009.11-cloud\cpu\mpc85xx\libmpc85xx.a(cpu.o)
 .debug_frame   0x00000000000086e4       0x7c C:\u-boot-2009.11-cloud\cpu\mpc85xx\libmpc85xx.a(interrupts.o)
 .debug_frame   0x0000000000008760       0xc0 C:\u-boot-2009.11-cloud\cpu\mpc85xx\libmpc85xx.a(speed.o)
 .debug_frame   0x0000000000008820      0x108 C:\u-boot-2009.11-cloud\lib_ppc\libppc.a(bootm.o)
 .debug_frame   0x0000000000008928       0x20 C:\u-boot-2009.11-cloud\lib_ppc\libppc.a(cache.o)
 .debug_frame   0x0000000000008948      0x158 C:\u-boot-2009.11-cloud\drivers\mtd\nand\libnand.a(nand_util.o)
 .debug_frame   0x0000000000008aa0      0x14c C:\u-boot-2009.11-cloud\drivers\mtd\spi\libspi_flash.a(spi_flash.o)
 .debug_frame   0x0000000000008bec      0x16c C:\u-boot-2009.11-cloud\drivers\mtd\spi\libspi_flash.a(spansion.o)
 .debug_frame   0x0000000000008d58      0x468 C:\u-boot-2009.11-cloud\drivers\net\libnet.a(tsec.o)
 .debug_frame   0x00000000000091c0       0x48 C:\u-boot-2009.11-cloud\drivers\net\libnet.a(vsc7385.o)
 .debug_frame   0x0000000000009208       0x4c C:\u-boot-2009.11-cloud\cpu\mpc8xxx\lib8xxx.a(fdt.o)
 .debug_frame   0x0000000000009254       0x78 C:\u-boot-2009.11-cloud\drivers\rtc\librtc.a(date.o)
 .debug_frame   0x00000000000092cc      0x100 C:\u-boot-2009.11-cloud\drivers\rtc\librtc.a(ds1337.o)
 .debug_frame   0x00000000000093cc      0x56c C:\u-boot-2009.11-cloud\drivers\serial\libserial.a(serial.o)
 .debug_frame   0x0000000000009938       0x60 C:\u-boot-2009.11-cloud\drivers\serial\libserial.a(ns16550.o)
 .debug_frame   0x0000000000009998       0x30 C:\u-boot-2009.11-cloud\lib_generic\libgeneric.a(div64.o)
 .debug_frame   0x00000000000099c8       0x20 C:\Cross_Tools\4.3.2\libgcc.a(_lshrdi3.o)
 .debug_frame   0x00000000000099e8       0x20 C:\Cross_Tools\4.3.2\libgcc.a(_ashldi3.o)
 .debug_frame   0x0000000000009a08       0x20 C:\Cross_Tools\4.3.2\libgcc.a(_ashrdi3.o)

.debug_loc      0x0000000000000000    0x249df
 .debug_loc     0x0000000000000000      0x103 C:\u-boot-2009.11-cloud\cpu\mpc85xx\libmpc85xx.a(cpu_init.o)
 .debug_loc     0x0000000000000103       0x50 C:\u-boot-2009.11-cloud\cpu\mpc85xx\libmpc85xx.a(cpu_init_early.o)
 .debug_loc     0x0000000000000153      0x2c8 C:\u-boot-2009.11-cloud\cpu\mpc85xx\libmpc85xx.a(tlb.o)
 .debug_loc     0x000000000000041b      0x399 C:\u-boot-2009.11-cloud\cpu\mpc85xx\libmpc85xx.a(traps.o)
 .debug_loc     0x00000000000007b4      0x357 C:\u-boot-2009.11-cloud\cpu\mpc85xx\libmpc85xx.a(mp.o)
 .debug_loc     0x0000000000000b0b      0x1a9 C:\u-boot-2009.11-cloud\lib_ppc\libppc.a(board.o)
 .debug_loc     0x0000000000000cb4       0x5b C:\u-boot-2009.11-cloud\lib_ppc\libppc.a(extable.o)
 .debug_loc     0x0000000000000d0f      0x10d C:\u-boot-2009.11-cloud\lib_ppc\libppc.a(interrupts.o)
 .debug_loc     0x0000000000000e1c      0x114 C:\u-boot-2009.11-cloud\lib_ppc\libppc.a(time.o)
 .debug_loc     0x0000000000000f30      0x60f C:\u-boot-2009.11-cloud\net\libnet.a(eth.o)
 .debug_loc     0x000000000000153f      0xc2d C:\u-boot-2009.11-cloud\net\libnet.a(net.o)
 .debug_loc     0x000000000000216c      0x76b C:\u-boot-2009.11-cloud\net\libnet.a(nfs.o)
 .debug_loc     0x00000000000028d7       0xfb C:\u-boot-2009.11-cloud\net\libnet.a(rarp.o)
 .debug_loc     0x00000000000029d2      0x266 C:\u-boot-2009.11-cloud\net\libnet.a(tftp.o)
 .debug_loc     0x0000000000002c38      0x434 C:\u-boot-2009.11-cloud\net\libnet.a(bootp.o)
 .debug_loc     0x000000000000306c      0x66f C:\u-boot-2009.11-cloud\drivers\i2c\libi2c.a(fsl_i2c.o)
 .debug_loc     0x00000000000036db      0x57d C:\u-boot-2009.11-cloud\drivers\misc\libmisc.a(fsl_law.o)
 .debug_loc     0x0000000000003c58     0x11f1 C:\u-boot-2009.11-cloud\drivers\mtd\libmtd.a(cfi_flash.o)
 .debug_loc     0x0000000000004e49       0x1f C:\u-boot-2009.11-cloud\drivers\mtd\nand\libnand.a(nand.o)
 .debug_loc     0x0000000000004e68     0x2df9 C:\u-boot-2009.11-cloud\drivers\mtd\nand\libnand.a(nand_base.o)
 .debug_loc     0x0000000000007c61     0x18f9 C:\u-boot-2009.11-cloud\drivers\mtd\nand\libnand.a(nand_bbt.o)
 .debug_loc     0x000000000000955a      0x1ad C:\u-boot-2009.11-cloud\drivers\mtd\nand\libnand.a(nand_ecc.o)
 .debug_loc     0x0000000000009707      0xad4 C:\u-boot-2009.11-cloud\drivers\mtd\nand\libnand.a(fsl_elbc_nand.o)
 .debug_loc     0x000000000000a1db      0x2bf C:\u-boot-2009.11-cloud\drivers\spi\libspi.a(fsl_espi.o)
 .debug_loc     0x000000000000a49a       0xac C:\u-boot-2009.11-cloud\cpu\mpc8xxx\lib8xxx.a(cpu.o)
 .debug_loc     0x000000000000a546       0xd9 C:\u-boot-2009.11-cloud\common\libcommon.a(cmd_bdinfo.o)
 .debug_loc     0x000000000000a61f      0x149 C:\u-boot-2009.11-cloud\common\libcommon.a(cmd_boot.o)
 .debug_loc     0x000000000000a768      0xec0 C:\u-boot-2009.11-cloud\common\libcommon.a(cmd_bootm.o)
 .debug_loc     0x000000000000b628      0x3be C:\u-boot-2009.11-cloud\common\libcommon.a(cmd_elf.o)
 .debug_loc     0x000000000000b9e6      0xdce C:\u-boot-2009.11-cloud\common\libcommon.a(cmd_fdt.o)
 .debug_loc     0x000000000000c7b4      0x9c3 C:\u-boot-2009.11-cloud\common\libcommon.a(cmd_flash.o)
 .debug_loc     0x000000000000d177      0x373 C:\u-boot-2009.11-cloud\common\libcommon.a(cmd_itest.o)
 .debug_loc     0x000000000000d4ea      0x89d C:\u-boot-2009.11-cloud\common\libcommon.a(cmd_load.o)
 .debug_loc     0x000000000000dd87      0xdc7 C:\u-boot-2009.11-cloud\common\libcommon.a(cmd_mem.o)
 .debug_loc     0x000000000000eb4e      0x8f9 C:\u-boot-2009.11-cloud\common\libcommon.a(cmd_mii.o)
 .debug_loc     0x000000000000f447       0xbd C:\u-boot-2009.11-cloud\common\libcommon.a(cmd_misc.o)
 .debug_loc     0x000000000000f504       0xaa C:\u-boot-2009.11-cloud\common\libcommon.a(cmd_mp.o)
 .debug_loc     0x000000000000f5ae      0x9b3 C:\u-boot-2009.11-cloud\common\libcommon.a(cmd_nand.o)
 .debug_loc     0x000000000000ff61      0x3cc C:\u-boot-2009.11-cloud\common\libcommon.a(cmd_net.o)
 .debug_loc     0x000000000001032d      0x8e4 C:\u-boot-2009.11-cloud\common\libcommon.a(cmd_nvedit.o)
 .debug_loc     0x0000000000010c11      0x12b C:\u-boot-2009.11-cloud\common\libcommon.a(cmd_setexpr.o)
 .debug_loc     0x0000000000010d3c      0x404 C:\u-boot-2009.11-cloud\common\libcommon.a(cmd_sf.o)
 .debug_loc     0x0000000000011140      0x26c C:\u-boot-2009.11-cloud\common\libcommon.a(cmd_source.o)
 .debug_loc     0x00000000000113ac      0xa22 C:\u-boot-2009.11-cloud\common\libcommon.a(command.o)
 .debug_loc     0x0000000000011dce      0x64f C:\u-boot-2009.11-cloud\common\libcommon.a(console.o)
 .debug_loc     0x000000000001241d     0x1370 C:\u-boot-2009.11-cloud\common\libcommon.a(dlmalloc.o)
 .debug_loc     0x000000000001378d      0x11c C:\u-boot-2009.11-cloud\common\libcommon.a(env_common.o)
 .debug_loc     0x00000000000138a9       0xb7 C:\u-boot-2009.11-cloud\common\libcommon.a(env_sf.o)
 .debug_loc     0x0000000000013960       0x1f C:\u-boot-2009.11-cloud\common\libcommon.a(exports.o)
 .debug_loc     0x000000000001397f      0xd80 C:\u-boot-2009.11-cloud\common\libcommon.a(fdt_support.o)
 .debug_loc     0x00000000000146ff      0x3a9 C:\u-boot-2009.11-cloud\common\libcommon.a(flash.o)
 .debug_loc     0x0000000000014aa8     0x1436 C:\u-boot-2009.11-cloud\common\libcommon.a(hush.o)
 .debug_loc     0x0000000000015ede     0x265b C:\u-boot-2009.11-cloud\common\libcommon.a(image.o)
 .debug_loc     0x0000000000018539     0x113c C:\u-boot-2009.11-cloud\common\libcommon.a(main.o)
 .debug_loc     0x0000000000019675      0x6f2 C:\u-boot-2009.11-cloud\common\libcommon.a(miiphyutil.o)
 .debug_loc     0x0000000000019d67      0x219 C:\u-boot-2009.11-cloud\common\libcommon.a(s_record.o)
 .debug_loc     0x0000000000019f80      0x21b C:\u-boot-2009.11-cloud\common\libcommon.a(serial.o)
 .debug_loc     0x000000000001a19b      0x137 C:\u-boot-2009.11-cloud\common\libcommon.a(stdio.o)
 .debug_loc     0x000000000001a2d2      0x385 C:\u-boot-2009.11-cloud\libfdt\libfdt.a(fdt.o)
 .debug_loc     0x000000000001a657      0xfc1 C:\u-boot-2009.11-cloud\libfdt\libfdt.a(fdt_ro.o)
 .debug_loc     0x000000000001b618      0xba8 C:\u-boot-2009.11-cloud\libfdt\libfdt.a(fdt_rw.o)
 .debug_loc     0x000000000001c1c0       0x7c C:\u-boot-2009.11-cloud\libfdt\libfdt.a(fdt_strerror.o)
 .debug_loc     0x000000000001c23c      0x25e C:\u-boot-2009.11-cloud\libfdt\libfdt.a(fdt_wip.o)
 .debug_loc     0x000000000001c49a      0x21b C:\u-boot-2009.11-cloud\board\freescale\p1_p2_rdb\libp1_p2_rdb.a(p1_p2_rdb.o)
 .debug_loc     0x000000000001c6b5       0x51 C:\u-boot-2009.11-cloud\board\freescale\p1_p2_rdb\libp1_p2_rdb.a(ddr.o)
 .debug_loc     0x000000000001c706      0x23b C:\u-boot-2009.11-cloud\lib_generic\libgeneric.a(crc32.o)
 .debug_loc     0x000000000001c941      0x208 C:\u-boot-2009.11-cloud\lib_generic\libgeneric.a(display_options.o)
 .debug_loc     0x000000000001cb49      0x2ba C:\u-boot-2009.11-cloud\lib_generic\libgeneric.a(gunzip.o)
 .debug_loc     0x000000000001ce03      0x696 C:\u-boot-2009.11-cloud\lib_generic\libgeneric.a(lmb.o)
 .debug_loc     0x000000000001d499      0x654 C:\u-boot-2009.11-cloud\lib_generic\libgeneric.a(md5.o)
 .debug_loc     0x000000000001daed      0x9e3 C:\u-boot-2009.11-cloud\lib_generic\libgeneric.a(sha1.o)
 .debug_loc     0x000000000001e4d0      0x411 C:\u-boot-2009.11-cloud\lib_generic\libgeneric.a(string.o)
 .debug_loc     0x000000000001e8e1       0x81 C:\u-boot-2009.11-cloud\lib_generic\libgeneric.a(strmhz.o)
 .debug_loc     0x000000000001e962      0xb92 C:\u-boot-2009.11-cloud\lib_generic\libgeneric.a(vsprintf.o)
 .debug_loc     0x000000000001f4f4     0x16f1 C:\u-boot-2009.11-cloud\lib_generic\libgeneric.a(zlib.o)
 .debug_loc     0x0000000000020be5      0x591 C:\u-boot-2009.11-cloud\board\freescale\common\libfreescale.a(sys_eeprom.o)
 .debug_loc     0x0000000000021176      0x1fe C:\u-boot-2009.11-cloud\cpu\mpc85xx\libmpc85xx.a(ddr-gen3.o)
 .debug_loc     0x0000000000021374      0x4a6 C:\u-boot-2009.11-cloud\cpu\mpc85xx\libmpc85xx.a(fdt.o)
 .debug_loc     0x000000000002181a      0x344 C:\u-boot-2009.11-cloud\cpu\mpc85xx\libmpc85xx.a(cpu.o)
 .debug_loc     0x0000000000021b5e       0x76 C:\u-boot-2009.11-cloud\cpu\mpc85xx\libmpc85xx.a(interrupts.o)
 .debug_loc     0x0000000000021bd4      0x175 C:\u-boot-2009.11-cloud\cpu\mpc85xx\libmpc85xx.a(speed.o)
 .debug_loc     0x0000000000021d49      0x3cf C:\u-boot-2009.11-cloud\lib_ppc\libppc.a(bootm.o)
 .debug_loc     0x0000000000022118       0x13 C:\u-boot-2009.11-cloud\lib_ppc\libppc.a(cache.o)
 .debug_loc     0x000000000002212b      0x6eb C:\u-boot-2009.11-cloud\drivers\mtd\nand\libnand.a(nand_util.o)
 .debug_loc     0x0000000000022816      0x3b8 C:\u-boot-2009.11-cloud\drivers\mtd\spi\libspi_flash.a(spi_flash.o)
 .debug_loc     0x0000000000022bce      0x544 C:\u-boot-2009.11-cloud\drivers\mtd\spi\libspi_flash.a(spansion.o)
 .debug_loc     0x0000000000023112      0xc25 C:\u-boot-2009.11-cloud\drivers\net\libnet.a(tsec.o)
 .debug_loc     0x0000000000023d37       0x81 C:\u-boot-2009.11-cloud\drivers\net\libnet.a(vsc7385.o)
 .debug_loc     0x0000000000023db8       0x63 C:\u-boot-2009.11-cloud\cpu\mpc8xxx\lib8xxx.a(fdt.o)
 .debug_loc     0x0000000000023e1b      0x175 C:\u-boot-2009.11-cloud\drivers\rtc\librtc.a(date.o)
 .debug_loc     0x0000000000023f90      0x1c6 C:\u-boot-2009.11-cloud\drivers\rtc\librtc.a(ds1337.o)
 .debug_loc     0x0000000000024156      0x5c3 C:\u-boot-2009.11-cloud\drivers\serial\libserial.a(serial.o)
 .debug_loc     0x0000000000024719       0x4c C:\u-boot-2009.11-cloud\drivers\serial\libserial.a(ns16550.o)
 .debug_loc     0x0000000000024765      0x130 C:\u-boot-2009.11-cloud\lib_generic\libgeneric.a(div64.o)
 .debug_loc     0x0000000000024895       0x6e C:\Cross_Tools\4.3.2\libgcc.a(_lshrdi3.o)
 .debug_loc     0x0000000000024903       0x6e C:\Cross_Tools\4.3.2\libgcc.a(_ashldi3.o)
 .debug_loc     0x0000000000024971       0x6e C:\Cross_Tools\4.3.2\libgcc.a(_ashrdi3.o)

.debug_pubnames
                0x0000000000000000     0x4225
 .debug_pubnames
                0x0000000000000000       0x4b C:\u-boot-2009.11-cloud\cpu\mpc85xx\libmpc85xx.a(cpu_init.o)
 .debug_pubnames
                0x000000000000004b       0x2e C:\u-boot-2009.11-cloud\cpu\mpc85xx\libmpc85xx.a(cpu_init_early.o)
 .debug_pubnames
                0x0000000000000079       0x7a C:\u-boot-2009.11-cloud\cpu\mpc85xx\libmpc85xx.a(tlb.o)
 .debug_pubnames
                0x00000000000000f3      0x139 C:\u-boot-2009.11-cloud\cpu\mpc85xx\libmpc85xx.a(traps.o)
 .debug_pubnames
                0x000000000000022c       0xbe C:\u-boot-2009.11-cloud\cpu\mpc85xx\libmpc85xx.a(mp.o)
 .debug_pubnames
                0x00000000000002ea       0x9f C:\u-boot-2009.11-cloud\lib_ppc\libppc.a(board.o)
 .debug_pubnames
                0x0000000000000389       0x47 C:\u-boot-2009.11-cloud\lib_ppc\libppc.a(extable.o)
 .debug_pubnames
                0x00000000000003d0       0x92 C:\u-boot-2009.11-cloud\lib_ppc\libppc.a(interrupts.o)
 .debug_pubnames
                0x0000000000000462       0x4d C:\u-boot-2009.11-cloud\lib_ppc\libppc.a(time.o)
 .debug_pubnames
                0x00000000000004af      0x160 C:\u-boot-2009.11-cloud\net\libnet.a(eth.o)
 .debug_pubnames
                0x000000000000060f      0x411 C:\u-boot-2009.11-cloud\net\libnet.a(net.o)
 .debug_pubnames
                0x0000000000000a20       0x1f C:\u-boot-2009.11-cloud\net\libnet.a(nfs.o)
 .debug_pubnames
                0x0000000000000a3f       0x2e C:\u-boot-2009.11-cloud\net\libnet.a(rarp.o)
 .debug_pubnames
                0x0000000000000a6d       0x53 C:\u-boot-2009.11-cloud\net\libnet.a(tftp.o)
 .debug_pubnames
                0x0000000000000ac0       0x3c C:\u-boot-2009.11-cloud\net\libnet.a(bootp.o)
 .debug_pubnames
                0x0000000000000afc       0xa3 C:\u-boot-2009.11-cloud\drivers\i2c\libi2c.a(fsl_i2c.o)
 .debug_pubnames
                0x0000000000000b9f       0x92 C:\u-boot-2009.11-cloud\drivers\misc\libmisc.a(fsl_law.o)
 .debug_pubnames
                0x0000000000000c31       0xcd C:\u-boot-2009.11-cloud\drivers\mtd\libmtd.a(cfi_flash.o)
 .debug_pubnames
                0x0000000000000cfe       0x4a C:\u-boot-2009.11-cloud\drivers\mtd\nand\libnand.a(nand.o)
 .debug_pubnames
                0x0000000000000d48       0x80 C:\u-boot-2009.11-cloud\drivers\mtd\nand\libnand.a(nand_base.o)
 .debug_pubnames
                0x0000000000000dc8       0x60 C:\u-boot-2009.11-cloud\drivers\mtd\nand\libnand.a(nand_bbt.o)
 .debug_pubnames
                0x0000000000000e28       0x3f C:\u-boot-2009.11-cloud\drivers\mtd\nand\libnand.a(nand_ecc.o)
 .debug_pubnames
                0x0000000000000e67       0x38 C:\u-boot-2009.11-cloud\drivers\mtd\nand\libnand.a(nand_ids.o)
 .debug_pubnames
                0x0000000000000e9f       0x26 C:\u-boot-2009.11-cloud\drivers\mtd\nand\libnand.a(fsl_elbc_nand.o)
 .debug_pubnames
                0x0000000000000ec5       0xb8 C:\u-boot-2009.11-cloud\drivers\spi\libspi.a(fsl_espi.o)
 .debug_pubnames
                0x0000000000000f7d       0x80 C:\u-boot-2009.11-cloud\cpu\mpc8xxx\lib8xxx.a(cpu.o)
 .debug_pubnames
                0x0000000000000ffd       0x3f C:\u-boot-2009.11-cloud\common\libcommon.a(cmd_bdinfo.o)
 .debug_pubnames
                0x000000000000103c       0x56 C:\u-boot-2009.11-cloud\common\libcommon.a(cmd_boot.o)
 .debug_pubnames
                0x0000000000001092      0x130 C:\u-boot-2009.11-cloud\common\libcommon.a(cmd_bootm.o)
 .debug_pubnames
                0x00000000000011c2       0x9b C:\u-boot-2009.11-cloud\common\libcommon.a(cmd_elf.o)
 .debug_pubnames
                0x000000000000125d       0x62 C:\u-boot-2009.11-cloud\common\libcommon.a(cmd_fdt.o)
 .debug_pubnames
                0x00000000000012bf       0xc8 C:\u-boot-2009.11-cloud\common\libcommon.a(cmd_flash.o)
 .debug_pubnames
                0x0000000000001387       0x53 C:\u-boot-2009.11-cloud\common\libcommon.a(cmd_itest.o)
 .debug_pubnames
                0x00000000000013da      0x1ab C:\u-boot-2009.11-cloud\common\libcommon.a(cmd_load.o)
 .debug_pubnames
                0x0000000000001585       0x27 C:\u-boot-2009.11-cloud\common\libcommon.a(cmd_mac.o)
 .debug_pubnames
                0x00000000000015ac      0x1d1 C:\u-boot-2009.11-cloud\common\libcommon.a(cmd_mem.o)
 .debug_pubnames
                0x000000000000177d      0x13e C:\u-boot-2009.11-cloud\common\libcommon.a(cmd_mii.o)
 .debug_pubnames
                0x00000000000018bb       0x36 C:\u-boot-2009.11-cloud\common\libcommon.a(cmd_misc.o)
 .debug_pubnames
                0x00000000000018f1       0x33 C:\u-boot-2009.11-cloud\common\libcommon.a(cmd_mp.o)
 .debug_pubnames
                0x0000000000001924       0x5b C:\u-boot-2009.11-cloud\common\libcommon.a(cmd_nand.o)
 .debug_pubnames
                0x000000000000197f       0xc6 C:\u-boot-2009.11-cloud\common\libcommon.a(cmd_net.o)
 .debug_pubnames
                0x0000000000001a45      0x11c C:\u-boot-2009.11-cloud\common\libcommon.a(cmd_nvedit.o)
 .debug_pubnames
                0x0000000000001b61       0x3a C:\u-boot-2009.11-cloud\common\libcommon.a(cmd_setexpr.o)
 .debug_pubnames
                0x0000000000001b9b       0x26 C:\u-boot-2009.11-cloud\common\libcommon.a(cmd_sf.o)
 .debug_pubnames
                0x0000000000001bc1       0x43 C:\u-boot-2009.11-cloud\common\libcommon.a(cmd_source.o)
 .debug_pubnames
                0x0000000000001c04      0x130 C:\u-boot-2009.11-cloud\common\libcommon.a(command.o)
 .debug_pubnames
                0x0000000000001d34      0x147 C:\u-boot-2009.11-cloud\common\libcommon.a(console.o)
 .debug_pubnames
                0x0000000000001e7b       0xfd C:\u-boot-2009.11-cloud\common\libcommon.a(dlmalloc.o)
 .debug_pubnames
                0x0000000000001f78       0xa3 C:\u-boot-2009.11-cloud\common\libcommon.a(env_common.o)
 .debug_pubnames
                0x000000000000201b       0x7c C:\u-boot-2009.11-cloud\common\libcommon.a(env_sf.o)
 .debug_pubnames
                0x0000000000002097       0x3c C:\u-boot-2009.11-cloud\common\libcommon.a(exports.o)
 .debug_pubnames
                0x00000000000020d3      0x168 C:\u-boot-2009.11-cloud\common\libcommon.a(fdt_support.o)
 .debug_pubnames
                0x000000000000223b       0x53 C:\u-boot-2009.11-cloud\common\libcommon.a(flash.o)
 .debug_pubnames
                0x000000000000228e      0x11d C:\u-boot-2009.11-cloud\common\libcommon.a(hush.o)
 .debug_pubnames
                0x00000000000023ab      0x559 C:\u-boot-2009.11-cloud\common\libcommon.a(image.o)
 .debug_pubnames
                0x0000000000002904       0xcd C:\u-boot-2009.11-cloud\common\libcommon.a(main.o)
 .debug_pubnames
                0x00000000000029d1       0xfd C:\u-boot-2009.11-cloud\common\libcommon.a(miiphyutil.o)
 .debug_pubnames
                0x0000000000002ace       0x22 C:\u-boot-2009.11-cloud\common\libcommon.a(s_record.o)
 .debug_pubnames
                0x0000000000002af0      0x100 C:\u-boot-2009.11-cloud\common\libcommon.a(serial.o)
 .debug_pubnames
                0x0000000000002bf0       0x96 C:\u-boot-2009.11-cloud\common\libcommon.a(stdio.o)
 .debug_pubnames
                0x0000000000002c86       0x9a C:\u-boot-2009.11-cloud\libfdt\libfdt.a(fdt.o)
 .debug_pubnames
                0x0000000000002d20      0x21a C:\u-boot-2009.11-cloud\libfdt\libfdt.a(fdt_ro.o)
 .debug_pubnames
                0x0000000000002f3a       0xcb C:\u-boot-2009.11-cloud\libfdt\libfdt.a(fdt_rw.o)
 .debug_pubnames
                0x0000000000003005       0x23 C:\u-boot-2009.11-cloud\libfdt\libfdt.a(fdt_strerror.o)
 .debug_pubnames
                0x0000000000003028       0x69 C:\u-boot-2009.11-cloud\libfdt\libfdt.a(fdt_wip.o)
 .debug_pubnames
                0x0000000000003091       0x91 C:\u-boot-2009.11-cloud\board\freescale\p1_p2_rdb\libp1_p2_rdb.a(p1_p2_rdb.o)
 .debug_pubnames
                0x0000000000003122       0x8a C:\u-boot-2009.11-cloud\board\freescale\p1_p2_rdb\libp1_p2_rdb.a(ddr.o)
 .debug_pubnames
                0x00000000000031ac       0x34 C:\u-boot-2009.11-cloud\board\freescale\p1_p2_rdb\libp1_p2_rdb.a(law.o)
 .debug_pubnames
                0x00000000000031e0       0x34 C:\u-boot-2009.11-cloud\board\freescale\p1_p2_rdb\libp1_p2_rdb.a(tlb.o)
 .debug_pubnames
                0x0000000000003214       0x3b C:\u-boot-2009.11-cloud\lib_generic\libgeneric.a(crc32.o)
 .debug_pubnames
                0x000000000000324f       0x1d C:\u-boot-2009.11-cloud\lib_generic\libgeneric.a(ctype.o)
 .debug_pubnames
                0x000000000000326c       0x46 C:\u-boot-2009.11-cloud\lib_generic\libgeneric.a(display_options.o)
 .debug_pubnames
                0x00000000000032b2       0x3d C:\u-boot-2009.11-cloud\lib_generic\libgeneric.a(gunzip.o)
 .debug_pubnames
                0x00000000000032ef       0xbb C:\u-boot-2009.11-cloud\lib_generic\libgeneric.a(lmb.o)
 .debug_pubnames
                0x00000000000033aa       0x25 C:\u-boot-2009.11-cloud\lib_generic\libgeneric.a(md5.o)
 .debug_pubnames
                0x00000000000033cf       0x82 C:\u-boot-2009.11-cloud\lib_generic\libgeneric.a(sha1.o)
 .debug_pubnames
                0x0000000000003451       0xb6 C:\u-boot-2009.11-cloud\lib_generic\libgeneric.a(string.o)
 .debug_pubnames
                0x0000000000003507       0x1d C:\u-boot-2009.11-cloud\lib_generic\libgeneric.a(strmhz.o)
 .debug_pubnames
                0x0000000000003524       0x73 C:\u-boot-2009.11-cloud\lib_generic\libgeneric.a(vsprintf.o)
 .debug_pubnames
                0x0000000000003597       0xb4 C:\u-boot-2009.11-cloud\lib_generic\libgeneric.a(zlib.o)
 .debug_pubnames
                0x000000000000364b       0x36 C:\u-boot-2009.11-cloud\board\freescale\common\libfreescale.a(sys_eeprom.o)
 .debug_pubnames
                0x0000000000003681       0x2e C:\u-boot-2009.11-cloud\cpu\mpc85xx\libmpc85xx.a(ddr-gen3.o)
 .debug_pubnames
                0x00000000000036af       0x99 C:\u-boot-2009.11-cloud\cpu\mpc85xx\libmpc85xx.a(fdt.o)
 .debug_pubnames
                0x0000000000003748       0x60 C:\u-boot-2009.11-cloud\cpu\mpc85xx\libmpc85xx.a(cpu.o)
 .debug_pubnames
                0x00000000000037a8       0x7d C:\u-boot-2009.11-cloud\cpu\mpc85xx\libmpc85xx.a(interrupts.o)
 .debug_pubnames
                0x0000000000003825       0x81 C:\u-boot-2009.11-cloud\cpu\mpc85xx\libmpc85xx.a(speed.o)
 .debug_pubnames
                0x00000000000038a6       0x41 C:\u-boot-2009.11-cloud\lib_ppc\libppc.a(bootm.o)
 .debug_pubnames
                0x00000000000038e7       0x22 C:\u-boot-2009.11-cloud\lib_ppc\libppc.a(cache.o)
 .debug_pubnames
                0x0000000000003909       0x55 C:\u-boot-2009.11-cloud\drivers\mtd\nand\libnand.a(nand_util.o)
 .debug_pubnames
                0x000000000000395e       0x94 C:\u-boot-2009.11-cloud\drivers\mtd\spi\libspi_flash.a(spi_flash.o)
 .debug_pubnames
                0x00000000000039f2       0x42 C:\u-boot-2009.11-cloud\drivers\mtd\spi\libspi_flash.a(spansion.o)
 .debug_pubnames
                0x0000000000003a34      0x3b3 C:\u-boot-2009.11-cloud\drivers\net\libnet.a(tsec.o)
 .debug_pubnames
                0x0000000000003de7       0x2e C:\u-boot-2009.11-cloud\drivers\net\libnet.a(vsc7385.o)
 .debug_pubnames
                0x0000000000003e15       0x29 C:\u-boot-2009.11-cloud\cpu\mpc8xxx\lib8xxx.a(fdt.o)
 .debug_pubnames
                0x0000000000003e3e       0x38 C:\u-boot-2009.11-cloud\drivers\rtc\librtc.a(date.o)
 .debug_pubnames
                0x0000000000003e76       0x38 C:\u-boot-2009.11-cloud\drivers\rtc\librtc.a(ds1337.o)
 .debug_pubnames
                0x0000000000003eae      0x28d C:\u-boot-2009.11-cloud\drivers\serial\libserial.a(serial.o)
 .debug_pubnames
                0x000000000000413b       0x69 C:\u-boot-2009.11-cloud\drivers\serial\libserial.a(ns16550.o)
 .debug_pubnames
                0x00000000000041a4       0x21 C:\u-boot-2009.11-cloud\lib_generic\libgeneric.a(div64.o)
 .debug_pubnames
                0x00000000000041c5       0x20 C:\Cross_Tools\4.3.2\libgcc.a(_lshrdi3.o)
 .debug_pubnames
                0x00000000000041e5       0x20 C:\Cross_Tools\4.3.2\libgcc.a(_ashldi3.o)
 .debug_pubnames
                0x0000000000004205       0x20 C:\Cross_Tools\4.3.2\libgcc.a(_ashrdi3.o)

.debug_str      0x0000000000000000     0xa983
 .debug_str     0x0000000000000000      0x3f8 C:\u-boot-2009.11-cloud\cpu\mpc85xx\libmpc85xx.a(cpu_init.o)
                                        0x46d (size before relaxing)
 .debug_str     0x00000000000003f8       0x6f C:\u-boot-2009.11-cloud\cpu\mpc85xx\libmpc85xx.a(cpu_init_early.o)
                                        0x2c4 (size before relaxing)
 .debug_str     0x0000000000000467      0x146 C:\u-boot-2009.11-cloud\cpu\mpc85xx\libmpc85xx.a(tlb.o)
                                        0x3b9 (size before relaxing)
 .debug_str     0x00000000000005ad      0x8b3 C:\u-boot-2009.11-cloud\cpu\mpc85xx\libmpc85xx.a(traps.o)
                                        0xb4f (size before relaxing)
 .debug_str     0x0000000000000e60      0x3b2 C:\u-boot-2009.11-cloud\cpu\mpc85xx\libmpc85xx.a(mp.o)
                                        0xdd6 (size before relaxing)
 .debug_str     0x0000000000001212      0x13d C:\u-boot-2009.11-cloud\lib_ppc\libppc.a(board.o)
                                        0x393 (size before relaxing)
 .debug_str     0x000000000000134f       0xa6 C:\u-boot-2009.11-cloud\lib_ppc\libppc.a(extable.o)
                                        0x2ed (size before relaxing)
 .debug_str     0x00000000000013f5       0xa7 C:\u-boot-2009.11-cloud\lib_ppc\libppc.a(interrupts.o)
                                        0x1b2 (size before relaxing)
 .debug_str     0x000000000000149c       0x4b C:\u-boot-2009.11-cloud\lib_ppc\libppc.a(time.o)
                                        0x116 (size before relaxing)
 .debug_str     0x00000000000014e7      0x25c C:\u-boot-2009.11-cloud\net\libnet.a(eth.o)
                                        0x45e (size before relaxing)
 .debug_str     0x0000000000001743      0x61c C:\u-boot-2009.11-cloud\net\libnet.a(net.o)
                                        0x8f1 (size before relaxing)
 .debug_str     0x0000000000001d5f      0x2bc C:\u-boot-2009.11-cloud\net\libnet.a(nfs.o)
                                        0x45f (size before relaxing)
 .debug_str     0x000000000000201b       0x68 C:\u-boot-2009.11-cloud\net\libnet.a(rarp.o)
                                        0x1a0 (size before relaxing)
 .debug_str     0x0000000000002083      0x14d C:\u-boot-2009.11-cloud\net\libnet.a(tftp.o)
                                        0x2ef (size before relaxing)
 .debug_str     0x00000000000021d0      0x18b C:\u-boot-2009.11-cloud\net\libnet.a(bootp.o)
                                        0x3b9 (size before relaxing)
 .debug_str     0x000000000000235b      0x15e C:\u-boot-2009.11-cloud\drivers\i2c\libi2c.a(fsl_i2c.o)
                                        0x407 (size before relaxing)
 .debug_str     0x00000000000024b9      0x2e3 C:\u-boot-2009.11-cloud\drivers\misc\libmisc.a(fsl_law.o)
                                        0x587 (size before relaxing)
 .debug_str     0x000000000000279c      0x6b4 C:\u-boot-2009.11-cloud\drivers\mtd\libmtd.a(cfi_flash.o)
                                        0x876 (size before relaxing)
 .debug_str     0x0000000000002e50      0x4fa C:\u-boot-2009.11-cloud\drivers\mtd\nand\libnand.a(nand.o)
                                        0x95c (size before relaxing)
 .debug_str     0x000000000000334a      0x725 C:\u-boot-2009.11-cloud\drivers\mtd\nand\libnand.a(nand_base.o)
                                        0xf14 (size before relaxing)
 .debug_str     0x0000000000003a6f      0x2ab C:\u-boot-2009.11-cloud\drivers\mtd\nand\libnand.a(nand_bbt.o)
                                        0xa2d (size before relaxing)
 .debug_str     0x0000000000003d1a       0xb5 C:\u-boot-2009.11-cloud\drivers\mtd\nand\libnand.a(nand_ecc.o)
                                        0x4fd (size before relaxing)
 .debug_str     0x0000000000003dcf       0x34 C:\u-boot-2009.11-cloud\drivers\mtd\nand\libnand.a(nand_ids.o)
                                        0x14a (size before relaxing)
 .debug_str     0x0000000000003e03      0x23c C:\u-boot-2009.11-cloud\drivers\mtd\nand\libnand.a(fsl_elbc_nand.o)
                                        0xac7 (size before relaxing)
 .debug_str     0x000000000000403f      0x192 C:\u-boot-2009.11-cloud\drivers\spi\libspi.a(fsl_espi.o)
                                        0x2a8 (size before relaxing)
 .debug_str     0x00000000000041d1       0x8a C:\u-boot-2009.11-cloud\cpu\mpc8xxx\lib8xxx.a(cpu.o)
                                        0x2d0 (size before relaxing)
 .debug_str     0x000000000000425b       0xa0 C:\u-boot-2009.11-cloud\common\libcommon.a(cmd_bdinfo.o)
                                        0x2f6 (size before relaxing)
 .debug_str     0x00000000000042fb       0x5e C:\u-boot-2009.11-cloud\common\libcommon.a(cmd_boot.o)
                                        0x16e (size before relaxing)
 .debug_str     0x0000000000004359      0x571 C:\u-boot-2009.11-cloud\common\libcommon.a(cmd_bootm.o)
                                        0xb1d (size before relaxing)
 .debug_str     0x00000000000048ca      0x1ce C:\u-boot-2009.11-cloud\common\libcommon.a(cmd_elf.o)
                                        0x368 (size before relaxing)
 .debug_str     0x0000000000004a98      0x114 C:\u-boot-2009.11-cloud\common\libcommon.a(cmd_fdt.o)
                                        0x4b4 (size before relaxing)
 .debug_str     0x0000000000004bac      0x15d C:\u-boot-2009.11-cloud\common\libcommon.a(cmd_flash.o)
                                        0x3c5 (size before relaxing)
 .debug_str     0x0000000000004d09       0x9f C:\u-boot-2009.11-cloud\common\libcommon.a(cmd_itest.o)
                                        0x1b8 (size before relaxing)
 .debug_str     0x0000000000004da8      0x473 C:\u-boot-2009.11-cloud\common\libcommon.a(cmd_load.o)
                                        0x77c (size before relaxing)
 .debug_str     0x000000000000521b       0x3a C:\u-boot-2009.11-cloud\common\libcommon.a(cmd_mac.o)
                                        0x11e (size before relaxing)
 .debug_str     0x0000000000005255      0x214 C:\u-boot-2009.11-cloud\common\libcommon.a(cmd_mem.o)
                                        0x380 (size before relaxing)
 .debug_str     0x0000000000005469      0x1cf C:\u-boot-2009.11-cloud\common\libcommon.a(cmd_mii.o)
                                        0x347 (size before relaxing)
 .debug_str     0x0000000000005638       0x46 C:\u-boot-2009.11-cloud\common\libcommon.a(cmd_misc.o)
                                        0x151 (size before relaxing)
 .debug_str     0x000000000000567e       0x47 C:\u-boot-2009.11-cloud\common\libcommon.a(cmd_mp.o)
                                        0x140 (size before relaxing)
 .debug_str     0x00000000000056c5      0x11e C:\u-boot-2009.11-cloud\common\libcommon.a(cmd_nand.o)
                                        0xa43 (size before relaxing)
 .debug_str     0x00000000000057e3       0xd7 C:\u-boot-2009.11-cloud\common\libcommon.a(cmd_net.o)
                                        0x2bc (size before relaxing)
 .debug_str     0x00000000000058ba      0x11b C:\u-boot-2009.11-cloud\common\libcommon.a(cmd_nvedit.o)
                                        0x400 (size before relaxing)
 .debug_str     0x00000000000059d5       0x4d C:\u-boot-2009.11-cloud\common\libcommon.a(cmd_setexpr.o)
                                        0x14c (size before relaxing)
 .debug_str     0x0000000000005a22       0xb0 C:\u-boot-2009.11-cloud\common\libcommon.a(cmd_sf.o)
                                        0x290 (size before relaxing)
 .debug_str     0x0000000000005ad2       0x65 C:\u-boot-2009.11-cloud\common\libcommon.a(cmd_source.o)
                                        0x2b4 (size before relaxing)
 .debug_str     0x0000000000005b37      0x18c C:\u-boot-2009.11-cloud\common\libcommon.a(command.o)
                                        0x2b0 (size before relaxing)
 .debug_str     0x0000000000005cc3      0x1ef C:\u-boot-2009.11-cloud\common\libcommon.a(console.o)
                                        0x601 (size before relaxing)
 .debug_str     0x0000000000005eb2      0x2f1 C:\u-boot-2009.11-cloud\common\libcommon.a(dlmalloc.o)
                                        0x5c9 (size before relaxing)
 .debug_str     0x00000000000061a3       0xc8 C:\u-boot-2009.11-cloud\common\libcommon.a(env_common.o)
                                        0x313 (size before relaxing)
 .debug_str     0x000000000000626b       0x9f C:\u-boot-2009.11-cloud\common\libcommon.a(env_sf.o)
                                        0x408 (size before relaxing)
 .debug_str     0x000000000000630a       0x3e C:\u-boot-2009.11-cloud\common\libcommon.a(exports.o)
                                        0x3d9 (size before relaxing)
 .debug_str     0x0000000000006348      0x243 C:\u-boot-2009.11-cloud\common\libcommon.a(fdt_support.o)
                                        0x639 (size before relaxing)
 .debug_str     0x000000000000658b       0x61 C:\u-boot-2009.11-cloud\common\libcommon.a(flash.o)
                                        0x26e (size before relaxing)
 .debug_str     0x00000000000065ec      0x502 C:\u-boot-2009.11-cloud\common\libcommon.a(hush.o)
                                        0x864 (size before relaxing)
 .debug_str     0x0000000000006aee      0x79b C:\u-boot-2009.11-cloud\common\libcommon.a(image.o)
                                        0xf82 (size before relaxing)
 .debug_str     0x0000000000007289      0x201 C:\u-boot-2009.11-cloud\common\libcommon.a(main.o)
                                        0x4ce (size before relaxing)
 .debug_str     0x000000000000748a      0x17a C:\u-boot-2009.11-cloud\common\libcommon.a(miiphyutil.o)
                                        0x29b (size before relaxing)
 .debug_str     0x0000000000007604       0x59 C:\u-boot-2009.11-cloud\common\libcommon.a(s_record.o)
                                        0x122 (size before relaxing)
 .debug_str     0x000000000000765d       0xf2 C:\u-boot-2009.11-cloud\common\libcommon.a(serial.o)
                                        0x3b3 (size before relaxing)
 .debug_str     0x000000000000774f       0x86 C:\u-boot-2009.11-cloud\common\libcommon.a(stdio.o)
                                        0x356 (size before relaxing)
 .debug_str     0x00000000000077d5       0xab C:\u-boot-2009.11-cloud\libfdt\libfdt.a(fdt.o)
                                        0x21f (size before relaxing)
 .debug_str     0x0000000000007880      0x2c0 C:\u-boot-2009.11-cloud\libfdt\libfdt.a(fdt_ro.o)
                                        0x4aa (size before relaxing)
 .debug_str     0x0000000000007b40      0x305 C:\u-boot-2009.11-cloud\libfdt\libfdt.a(fdt_rw.o)
                                        0x547 (size before relaxing)
 .debug_str     0x0000000000007e45       0x5d C:\u-boot-2009.11-cloud\libfdt\libfdt.a(fdt_strerror.o)
                                         0xf2 (size before relaxing)
 .debug_str     0x0000000000007ea2       0x97 C:\u-boot-2009.11-cloud\libfdt\libfdt.a(fdt_wip.o)
                                        0x1c0 (size before relaxing)
 .debug_str     0x0000000000007f39      0x4e9 C:\u-boot-2009.11-cloud\board\freescale\p1_p2_rdb\libp1_p2_rdb.a(p1_p2_rdb.o)
                                        0x959 (size before relaxing)
 .debug_str     0x0000000000008422      0x210 C:\u-boot-2009.11-cloud\board\freescale\p1_p2_rdb\libp1_p2_rdb.a(ddr.o)
                                        0x5b5 (size before relaxing)
 .debug_str     0x0000000000008632       0x38 C:\u-boot-2009.11-cloud\board\freescale\p1_p2_rdb\libp1_p2_rdb.a(law.o)
                                        0x327 (size before relaxing)
 .debug_str     0x000000000000866a       0x38 C:\u-boot-2009.11-cloud\board\freescale\p1_p2_rdb\libp1_p2_rdb.a(tlb.o)
                                        0x128 (size before relaxing)
 .debug_str     0x00000000000086a2       0x66 C:\u-boot-2009.11-cloud\lib_generic\libgeneric.a(crc32.o)
                                        0x128 (size before relaxing)
 .debug_str     0x0000000000008708       0x2c C:\u-boot-2009.11-cloud\lib_generic\libgeneric.a(ctype.o)
                                         0x4d (size before relaxing)
 .debug_str     0x0000000000008734       0x63 C:\u-boot-2009.11-cloud\lib_generic\libgeneric.a(display_options.o)
                                        0x18e (size before relaxing)
 .debug_str     0x0000000000008797       0xfa C:\u-boot-2009.11-cloud\lib_generic\libgeneric.a(gunzip.o)
                                        0x1ee (size before relaxing)
 .debug_str     0x0000000000008891      0x185 C:\u-boot-2009.11-cloud\lib_generic\libgeneric.a(lmb.o)
                                        0x2c4 (size before relaxing)
 .debug_str     0x0000000000008a16       0x7d C:\u-boot-2009.11-cloud\lib_generic\libgeneric.a(md5.o)
                                        0x159 (size before relaxing)
 .debug_str     0x0000000000008a93       0xdd C:\u-boot-2009.11-cloud\lib_generic\libgeneric.a(sha1.o)
                                        0x1d1 (size before relaxing)
 .debug_str     0x0000000000008b70       0xa6 C:\u-boot-2009.11-cloud\lib_generic\libgeneric.a(string.o)
                                        0x17a (size before relaxing)
 .debug_str     0x0000000000008c16       0x34 C:\u-boot-2009.11-cloud\lib_generic\libgeneric.a(strmhz.o)
                                         0xe1 (size before relaxing)
 .debug_str     0x0000000000008c4a      0x118 C:\u-boot-2009.11-cloud\lib_generic\libgeneric.a(vsprintf.o)
                                        0x2ae (size before relaxing)
 .debug_str     0x0000000000008d62      0x2c8 C:\u-boot-2009.11-cloud\lib_generic\libgeneric.a(zlib.o)
                                        0x553 (size before relaxing)
 .debug_str     0x000000000000902a       0xfc C:\u-boot-2009.11-cloud\board\freescale\common\libfreescale.a(sys_eeprom.o)
                                        0x225 (size before relaxing)
 .debug_str     0x0000000000009126      0x2fb C:\u-boot-2009.11-cloud\cpu\mpc85xx\libmpc85xx.a(ddr-gen3.o)
                                        0x7a1 (size before relaxing)
 .debug_str     0x0000000000009421      0x19c C:\u-boot-2009.11-cloud\cpu\mpc85xx\libmpc85xx.a(fdt.o)
                                        0x63e (size before relaxing)
 .debug_str     0x00000000000095bd       0x89 C:\u-boot-2009.11-cloud\cpu\mpc85xx\libmpc85xx.a(cpu.o)
                                        0xcbd (size before relaxing)
 .debug_str     0x0000000000009646       0x9c C:\u-boot-2009.11-cloud\cpu\mpc85xx\libmpc85xx.a(interrupts.o)
                                        0x985 (size before relaxing)
 .debug_str     0x00000000000096e2       0xb6 C:\u-boot-2009.11-cloud\cpu\mpc85xx\libmpc85xx.a(speed.o)
                                        0x570 (size before relaxing)
 .debug_str     0x0000000000009798       0xa3 C:\u-boot-2009.11-cloud\lib_ppc\libppc.a(bootm.o)
                                        0x630 (size before relaxing)
 .debug_str     0x000000000000983b       0x34 C:\u-boot-2009.11-cloud\lib_ppc\libppc.a(cache.o)
                                        0x109 (size before relaxing)
 .debug_str     0x000000000000986f      0x196 C:\u-boot-2009.11-cloud\drivers\mtd\nand\libnand.a(nand_util.o)
                                        0x990 (size before relaxing)
 .debug_str     0x0000000000009a05       0xd8 C:\u-boot-2009.11-cloud\drivers\mtd\spi\libspi_flash.a(spi_flash.o)
                                        0x244 (size before relaxing)
 .debug_str     0x0000000000009add      0x162 C:\u-boot-2009.11-cloud\drivers\mtd\spi\libspi_flash.a(spansion.o)
                                        0x318 (size before relaxing)
 .debug_str     0x0000000000009c3f      0x4e2 C:\u-boot-2009.11-cloud\drivers\net\libnet.a(tsec.o)
                                        0xbe3 (size before relaxing)
 .debug_str     0x000000000000a121       0x7a C:\u-boot-2009.11-cloud\drivers\net\libnet.a(vsc7385.o)
                                        0x151 (size before relaxing)
 .debug_str     0x000000000000a19b       0x47 C:\u-boot-2009.11-cloud\cpu\mpc8xxx\lib8xxx.a(fdt.o)
                                        0x103 (size before relaxing)
 .debug_str     0x000000000000a1e2       0x71 C:\u-boot-2009.11-cloud\drivers\rtc\librtc.a(date.o)
                                        0x177 (size before relaxing)
 .debug_str     0x000000000000a253       0x96 C:\u-boot-2009.11-cloud\drivers\rtc\librtc.a(ds1337.o)
                                        0x1c0 (size before relaxing)
 .debug_str     0x000000000000a2e9      0x376 C:\u-boot-2009.11-cloud\drivers\serial\libserial.a(serial.o)
                                        0x647 (size before relaxing)
 .debug_str     0x000000000000a65f       0x8a C:\u-boot-2009.11-cloud\drivers\serial\libserial.a(ns16550.o)
                                        0x1e3 (size before relaxing)
 .debug_str     0x000000000000a6e9       0x37 C:\u-boot-2009.11-cloud\lib_generic\libgeneric.a(div64.o)
                                         0xf4 (size before relaxing)
 .debug_str     0x000000000000a720      0x24f C:\Cross_Tools\4.3.2\libgcc.a(_lshrdi3.o)
                                        0x337 (size before relaxing)
 .debug_str     0x000000000000a96f        0xa C:\Cross_Tools\4.3.2\libgcc.a(_ashldi3.o)
                                        0x337 (size before relaxing)
 .debug_str     0x000000000000a979        0xa C:\Cross_Tools\4.3.2\libgcc.a(_ashrdi3.o)
                                        0x337 (size before relaxing)
